
330stencil:     file format elf32-littlemips


Disassembly of section .startup:

00000000 <_start>:
   0:	00000000 	nop
   4:	00000821 	move	$1,$0
   8:	00001021 	move	$2,$0
   c:	00001821 	move	$3,$0
  10:	00002021 	move	$4,$0
  14:	00002821 	move	$5,$0
  18:	00003021 	move	$6,$0
  1c:	00003821 	move	$7,$0
  20:	00004021 	move	$8,$0
  24:	00004821 	move	$9,$0
  28:	00005021 	move	$10,$0
  2c:	00005821 	move	$11,$0
  30:	00006021 	move	$12,$0
  34:	00006821 	move	$13,$0
  38:	00007021 	move	$14,$0
  3c:	00007821 	move	$15,$0
  40:	00008021 	move	$16,$0
  44:	00008821 	move	$17,$0
  48:	00009021 	move	$18,$0
  4c:	00009821 	move	$19,$0
  50:	0000a021 	move	$20,$0
  54:	0000a821 	move	$21,$0
  58:	0000b021 	move	$22,$0
  5c:	0000b821 	move	$23,$0
  60:	0000c021 	move	$24,$0
  64:	0000c821 	move	$25,$0
  68:	0000d021 	move	$26,$0
  6c:	0000d821 	move	$27,$0
  70:	0000f021 	move	$30,$0
  74:	0000f821 	move	$31,$0
  78:	3c1c0002 	lui	$28,0x2
  7c:	279c8000 	addiu	$28,$28,-32768
  80:	3c1d07ff 	lui	$29,0x7ff
  84:	37bdff00 	ori	$29,$29,0xff00
  88:	080001d7 	j	75c <main>
  8c:	00000000 	nop

Disassembly of section .text:

00000200 <mylib_wait>:
     200:	27bdfff8 	addiu	$29,$29,-8
     204:	00001021 	move	$2,$0
     208:	afa00000 	sw	$0,0($29)
     20c:	24040050 	li	$4,80
     210:	8fa30000 	lw	$3,0($29)
     214:	00000000 	nop
     218:	00621821 	addu	$3,$3,$2
     21c:	24420001 	addiu	$2,$2,1
     220:	1444fffb 	bne	$2,$4,210 <mylib_wait+0x10>
     224:	afa30000 	sw	$3,0($29)
     228:	03e00008 	jr	$31
     22c:	27bd0008 	addiu	$29,$29,8

00000230 <mylib_display_dec>:
     230:	04800068 	bltz	$4,3d4 <mylib_display_dec+0x1a4>
     234:	27bdfbf8 	addiu	$29,$29,-1032
     238:	1080005e 	beqz	$4,3b4 <mylib_display_dec+0x184>
     23c:	24020030 	li	$2,48
     240:	00003021 	move	$6,$0
     244:	3c076666 	lui	$7,0x6666
     248:	24e76667 	addiu	$7,$7,26215
     24c:	00870018 	mult	$4,$7
     250:	000447c3 	sra	$8,$4,0x1f
     254:	03a02821 	move	$5,$29
     258:	00001821 	move	$3,$0
     25c:	240f0001 	li	$15,1
     260:	240e0002 	li	$14,2
     264:	240d0003 	li	$13,3
     268:	240c0004 	li	$12,4
     26c:	240b0005 	li	$11,5
     270:	240a0006 	li	$10,6
     274:	00001010 	mfhi	$2
     278:	00021083 	sra	$2,$2,0x2
     27c:	00481023 	subu	$2,$2,$8
     280:	0002c040 	sll	$24,$2,0x1
     284:	000210c0 	sll	$2,$2,0x3
     288:	03021021 	addu	$2,$24,$2
     28c:	00821023 	subu	$2,$4,$2
     290:	10400042 	beqz	$2,39c <mylib_display_dec+0x16c>
     294:	24090007 	li	$9,7
     298:	104f0044 	beq	$2,$15,3ac <mylib_display_dec+0x17c>
     29c:	00000000 	nop
     2a0:	104e004a 	beq	$2,$14,3cc <mylib_display_dec+0x19c>
     2a4:	00000000 	nop
     2a8:	104d0046 	beq	$2,$13,3c4 <mylib_display_dec+0x194>
     2ac:	00000000 	nop
     2b0:	104c0051 	beq	$2,$12,3f8 <mylib_display_dec+0x1c8>
     2b4:	00000000 	nop
     2b8:	104b004d 	beq	$2,$11,3f0 <mylib_display_dec+0x1c0>
     2bc:	00000000 	nop
     2c0:	104a0049 	beq	$2,$10,3e8 <mylib_display_dec+0x1b8>
     2c4:	00000000 	nop
     2c8:	10490045 	beq	$2,$9,3e0 <mylib_display_dec+0x1b0>
     2cc:	00000000 	nop
     2d0:	38420008 	xori	$2,$2,0x8
     2d4:	0002102b 	sltu	$2,$0,$2
     2d8:	24420038 	addiu	$2,$2,56
     2dc:	00870018 	mult	$4,$7
     2e0:	aca20000 	sw	$2,0($5)
     2e4:	24620001 	addiu	$2,$3,1
     2e8:	00002010 	mfhi	$4
     2ec:	00042083 	sra	$4,$4,0x2
     2f0:	00882023 	subu	$4,$4,$8
     2f4:	1480001d 	bnez	$4,36c <mylib_display_dec+0x13c>
     2f8:	24a50004 	addiu	$5,$5,4
     2fc:	10c00005 	beqz	$6,314 <mylib_display_dec+0xe4>
     300:	2404002d 	li	$4,45
     304:	00021080 	sll	$2,$2,0x2
     308:	03a21021 	addu	$2,$29,$2
     30c:	ac440000 	sw	$4,0($2)
     310:	24620002 	addiu	$2,$3,2
     314:	2442ffff 	addiu	$2,$2,-1
     318:	00021880 	sll	$3,$2,0x2
     31c:	03a31821 	addu	$3,$29,$3
     320:	8c660000 	lw	$6,0($3)
     324:	2442ffff 	addiu	$2,$2,-1
     328:	00022880 	sll	$5,$2,0x2
     32c:	03a52821 	addu	$5,$29,$5
     330:	27a7fffc 	addiu	$7,$29,-4
     334:	24040050 	li	$4,80
     338:	afa00400 	sw	$0,1024($29)
     33c:	00001021 	move	$2,$0
     340:	8fa30400 	lw	$3,1024($29)
     344:	00000000 	nop
     348:	00621821 	addu	$3,$3,$2
     34c:	24420001 	addiu	$2,$2,1
     350:	1444fffb 	bne	$2,$4,340 <mylib_display_dec+0x110>
     354:	afa30400 	sw	$3,1024($29)
     358:	10a70012 	beq	$5,$7,3a4 <mylib_display_dec+0x174>
     35c:	ac060000 	sw	$6,0($0)
     360:	8ca60000 	lw	$6,0($5)
     364:	080000ce 	j	338 <mylib_display_dec+0x108>
     368:	24a5fffc 	addiu	$5,$5,-4
     36c:	00870018 	mult	$4,$7
     370:	00401821 	move	$3,$2
     374:	000447c3 	sra	$8,$4,0x1f
     378:	00001010 	mfhi	$2
     37c:	00021083 	sra	$2,$2,0x2
     380:	00481023 	subu	$2,$2,$8
     384:	0002c040 	sll	$24,$2,0x1
     388:	000210c0 	sll	$2,$2,0x3
     38c:	03021021 	addu	$2,$24,$2
     390:	00821023 	subu	$2,$4,$2
     394:	1440ffc0 	bnez	$2,298 <mylib_display_dec+0x68>
     398:	00000000 	nop
     39c:	080000b7 	j	2dc <mylib_display_dec+0xac>
     3a0:	24020030 	li	$2,48
     3a4:	03e00008 	jr	$31
     3a8:	27bd0408 	addiu	$29,$29,1032
     3ac:	080000b7 	j	2dc <mylib_display_dec+0xac>
     3b0:	24020031 	li	$2,49
     3b4:	afa20000 	sw	$2,0($29)
     3b8:	24060030 	li	$6,48
     3bc:	080000c9 	j	324 <mylib_display_dec+0xf4>
     3c0:	00001021 	move	$2,$0
     3c4:	080000b7 	j	2dc <mylib_display_dec+0xac>
     3c8:	24020033 	li	$2,51
     3cc:	080000b7 	j	2dc <mylib_display_dec+0xac>
     3d0:	24020032 	li	$2,50
     3d4:	00042023 	negu	$4,$4
     3d8:	08000091 	j	244 <mylib_display_dec+0x14>
     3dc:	24060001 	li	$6,1
     3e0:	080000b7 	j	2dc <mylib_display_dec+0xac>
     3e4:	24020037 	li	$2,55
     3e8:	080000b7 	j	2dc <mylib_display_dec+0xac>
     3ec:	24020036 	li	$2,54
     3f0:	080000b7 	j	2dc <mylib_display_dec+0xac>
     3f4:	24020035 	li	$2,53
     3f8:	080000b7 	j	2dc <mylib_display_dec+0xac>
     3fc:	24020034 	li	$2,52

00000400 <mylib_display_hex>:
     400:	27bdffd0 	addiu	$29,$29,-48
     404:	03a01021 	move	$2,$29
     408:	afb0002c 	sw	$16,44($29)
     40c:	27a50020 	addiu	$5,$29,32
     410:	24060001 	li	$6,1
     414:	24070002 	li	$7,2
     418:	24080003 	li	$8,3
     41c:	24090004 	li	$9,4
     420:	24100005 	li	$16,5
     424:	24190006 	li	$25,6
     428:	24180007 	li	$24,7
     42c:	240f0008 	li	$15,8
     430:	240e0009 	li	$14,9
     434:	240d000a 	li	$13,10
     438:	240c000b 	li	$12,11
     43c:	240b000c 	li	$11,12
     440:	240a000d 	li	$10,13
     444:	3083000f 	andi	$3,$4,0xf
     448:	10600034 	beqz	$3,51c <mylib_display_hex+0x11c>
     44c:	00000000 	nop
     450:	1066003b 	beq	$3,$6,540 <mylib_display_hex+0x140>
     454:	00000000 	nop
     458:	1067003b 	beq	$3,$7,548 <mylib_display_hex+0x148>
     45c:	00000000 	nop
     460:	1068003b 	beq	$3,$8,550 <mylib_display_hex+0x150>
     464:	00000000 	nop
     468:	1069003d 	beq	$3,$9,560 <mylib_display_hex+0x160>
     46c:	00000000 	nop
     470:	1070003d 	beq	$3,$16,568 <mylib_display_hex+0x168>
     474:	00000000 	nop
     478:	1079003d 	beq	$3,$25,570 <mylib_display_hex+0x170>
     47c:	00000000 	nop
     480:	10780035 	beq	$3,$24,558 <mylib_display_hex+0x158>
     484:	00000000 	nop
     488:	106f003d 	beq	$3,$15,580 <mylib_display_hex+0x180>
     48c:	00000000 	nop
     490:	106e003d 	beq	$3,$14,588 <mylib_display_hex+0x188>
     494:	00000000 	nop
     498:	106d0037 	beq	$3,$13,578 <mylib_display_hex+0x178>
     49c:	00000000 	nop
     4a0:	106c003d 	beq	$3,$12,598 <mylib_display_hex+0x198>
     4a4:	00000000 	nop
     4a8:	106b0039 	beq	$3,$11,590 <mylib_display_hex+0x190>
     4ac:	00000000 	nop
     4b0:	106a003b 	beq	$3,$10,5a0 <mylib_display_hex+0x1a0>
     4b4:	00000000 	nop
     4b8:	3863000e 	xori	$3,$3,0xe
     4bc:	0003182b 	sltu	$3,$0,$3
     4c0:	24630065 	addiu	$3,$3,101
     4c4:	ac430000 	sw	$3,0($2)
     4c8:	24420004 	addiu	$2,$2,4
     4cc:	1445ffdd 	bne	$2,$5,444 <mylib_display_hex+0x44>
     4d0:	00042103 	sra	$4,$4,0x4
     4d4:	27a5001c 	addiu	$5,$29,28
     4d8:	27a6fffc 	addiu	$6,$29,-4
     4dc:	24040050 	li	$4,80
     4e0:	afa00020 	sw	$0,32($29)
     4e4:	00001021 	move	$2,$0
     4e8:	8fa30020 	lw	$3,32($29)
     4ec:	00000000 	nop
     4f0:	00621821 	addu	$3,$3,$2
     4f4:	24420001 	addiu	$2,$2,1
     4f8:	1444fffb 	bne	$2,$4,4e8 <mylib_display_hex+0xe8>
     4fc:	afa30020 	sw	$3,32($29)
     500:	8ca20000 	lw	$2,0($5)
     504:	24a5fffc 	addiu	$5,$5,-4
     508:	14a6fff5 	bne	$5,$6,4e0 <mylib_display_hex+0xe0>
     50c:	ac020000 	sw	$2,0($0)
     510:	8fb0002c 	lw	$16,44($29)
     514:	03e00008 	jr	$31
     518:	27bd0030 	addiu	$29,$29,48
     51c:	24030030 	li	$3,48
     520:	ac430000 	sw	$3,0($2)
     524:	24420004 	addiu	$2,$2,4
     528:	1445ffc6 	bne	$2,$5,444 <mylib_display_hex+0x44>
     52c:	00042103 	sra	$4,$4,0x4
     530:	27a5001c 	addiu	$5,$29,28
     534:	27a6fffc 	addiu	$6,$29,-4
     538:	08000138 	j	4e0 <mylib_display_hex+0xe0>
     53c:	24040050 	li	$4,80
     540:	08000148 	j	520 <mylib_display_hex+0x120>
     544:	24030031 	li	$3,49
     548:	08000148 	j	520 <mylib_display_hex+0x120>
     54c:	24030032 	li	$3,50
     550:	08000148 	j	520 <mylib_display_hex+0x120>
     554:	24030033 	li	$3,51
     558:	08000148 	j	520 <mylib_display_hex+0x120>
     55c:	24030037 	li	$3,55
     560:	08000148 	j	520 <mylib_display_hex+0x120>
     564:	24030034 	li	$3,52
     568:	08000148 	j	520 <mylib_display_hex+0x120>
     56c:	24030035 	li	$3,53
     570:	08000148 	j	520 <mylib_display_hex+0x120>
     574:	24030036 	li	$3,54
     578:	08000148 	j	520 <mylib_display_hex+0x120>
     57c:	24030061 	li	$3,97
     580:	08000148 	j	520 <mylib_display_hex+0x120>
     584:	24030038 	li	$3,56
     588:	08000148 	j	520 <mylib_display_hex+0x120>
     58c:	24030039 	li	$3,57
     590:	08000148 	j	520 <mylib_display_hex+0x120>
     594:	24030063 	li	$3,99
     598:	08000148 	j	520 <mylib_display_hex+0x120>
     59c:	24030062 	li	$3,98
     5a0:	08000148 	j	520 <mylib_display_hex+0x120>
     5a4:	24030064 	li	$3,100

000005a8 <mylib_display_char>:
     5a8:	27bdfff8 	addiu	$29,$29,-8
     5ac:	00001021 	move	$2,$0
     5b0:	afa00000 	sw	$0,0($29)
     5b4:	24050050 	li	$5,80
     5b8:	8fa30000 	lw	$3,0($29)
     5bc:	00000000 	nop
     5c0:	00621821 	addu	$3,$3,$2
     5c4:	24420001 	addiu	$2,$2,1
     5c8:	1445fffb 	bne	$2,$5,5b8 <mylib_display_char+0x10>
     5cc:	afa30000 	sw	$3,0($29)
     5d0:	ac040000 	sw	$4,0($0)
     5d4:	03e00008 	jr	$31
     5d8:	27bd0008 	addiu	$29,$29,8

000005dc <mylib_display_newline>:
     5dc:	27bdfff8 	addiu	$29,$29,-8
     5e0:	00001021 	move	$2,$0
     5e4:	afa00004 	sw	$0,4($29)
     5e8:	24040050 	li	$4,80
     5ec:	8fa30004 	lw	$3,4($29)
     5f0:	00000000 	nop
     5f4:	00621821 	addu	$3,$3,$2
     5f8:	24420001 	addiu	$2,$2,1
     5fc:	1444fffb 	bne	$2,$4,5ec <mylib_display_newline+0x10>
     600:	afa30004 	sw	$3,4($29)
     604:	2402000a 	li	$2,10
     608:	ac020000 	sw	$2,0($0)
     60c:	24040050 	li	$4,80
     610:	00001021 	move	$2,$0
     614:	afa00000 	sw	$0,0($29)
     618:	8fa30000 	lw	$3,0($29)
     61c:	00000000 	nop
     620:	00621821 	addu	$3,$3,$2
     624:	24420001 	addiu	$2,$2,1
     628:	1444fffb 	bne	$2,$4,618 <mylib_display_newline+0x3c>
     62c:	afa30000 	sw	$3,0($29)
     630:	2402000d 	li	$2,13
     634:	ac020000 	sw	$2,0($0)
     638:	03e00008 	jr	$31
     63c:	27bd0008 	addiu	$29,$29,8

00000640 <mylib_flush>:
     640:	24050800 	li	$5,2048
     644:	24040050 	li	$4,80
     648:	2406005f 	li	$6,95
     64c:	27bdfff8 	addiu	$29,$29,-8
     650:	afa00000 	sw	$0,0($29)
     654:	00001021 	move	$2,$0
     658:	8fa30000 	lw	$3,0($29)
     65c:	00000000 	nop
     660:	00621821 	addu	$3,$3,$2
     664:	24420001 	addiu	$2,$2,1
     668:	1444fffb 	bne	$2,$4,658 <mylib_flush+0x18>
     66c:	afa30000 	sw	$3,0($29)
     670:	24a5ffff 	addiu	$5,$5,-1
     674:	14a0fff6 	bnez	$5,650 <mylib_flush+0x10>
     678:	ac060000 	sw	$6,0($0)
     67c:	03e00008 	jr	$31
     680:	27bd0008 	addiu	$29,$29,8

00000684 <mylib_finalize>:
     684:	27bdffd8 	addiu	$29,$29,-40
     688:	afbf0024 	sw	$31,36($29)
     68c:	0c000177 	jal	5dc <mylib_display_newline>
     690:	00000000 	nop
     694:	afa0001c 	sw	$0,28($29)
     698:	00001021 	move	$2,$0
     69c:	24040050 	li	$4,80
     6a0:	8fa3001c 	lw	$3,28($29)
     6a4:	00000000 	nop
     6a8:	00621821 	addu	$3,$3,$2
     6ac:	24420001 	addiu	$2,$2,1
     6b0:	1444fffb 	bne	$2,$4,6a0 <mylib_finalize+0x1c>
     6b4:	afa3001c 	sw	$3,28($29)
     6b8:	24020045 	li	$2,69
     6bc:	ac020000 	sw	$2,0($0)
     6c0:	24040050 	li	$4,80
     6c4:	00001021 	move	$2,$0
     6c8:	afa00018 	sw	$0,24($29)
     6cc:	8fa30018 	lw	$3,24($29)
     6d0:	00000000 	nop
     6d4:	00621821 	addu	$3,$3,$2
     6d8:	24420001 	addiu	$2,$2,1
     6dc:	1444fffb 	bne	$2,$4,6cc <mylib_finalize+0x48>
     6e0:	afa30018 	sw	$3,24($29)
     6e4:	2402004e 	li	$2,78
     6e8:	ac020000 	sw	$2,0($0)
     6ec:	24040050 	li	$4,80
     6f0:	00001021 	move	$2,$0
     6f4:	afa00014 	sw	$0,20($29)
     6f8:	8fa30014 	lw	$3,20($29)
     6fc:	00000000 	nop
     700:	00621821 	addu	$3,$3,$2
     704:	24420001 	addiu	$2,$2,1
     708:	1444fffb 	bne	$2,$4,6f8 <mylib_finalize+0x74>
     70c:	afa30014 	sw	$3,20($29)
     710:	24020044 	li	$2,68
     714:	0c000177 	jal	5dc <mylib_display_newline>
     718:	ac020000 	sw	$2,0($0)
     71c:	24050800 	li	$5,2048
     720:	24040050 	li	$4,80
     724:	2406005f 	li	$6,95
     728:	afa00010 	sw	$0,16($29)
     72c:	00001021 	move	$2,$0
     730:	8fa30010 	lw	$3,16($29)
     734:	00000000 	nop
     738:	00621821 	addu	$3,$3,$2
     73c:	24420001 	addiu	$2,$2,1
     740:	1444fffb 	bne	$2,$4,730 <mylib_finalize+0xac>
     744:	afa30010 	sw	$3,16($29)
     748:	24a5ffff 	addiu	$5,$5,-1
     74c:	14a0fff6 	bnez	$5,728 <mylib_finalize+0xa4>
     750:	ac060000 	sw	$6,0($0)
     754:	080001d5 	j	754 <mylib_finalize+0xd0>
     758:	00000000 	nop

0000075c <main>:
     75c:	8f838004 	lw	$3,-32764($28)
     760:	27bdff38 	addiu	$29,$29,-200
     764:	afb300ac 	sw	$19,172($29)
     768:	8c730000 	lw	$19,0($3)
     76c:	8f838000 	lw	$3,-32768($28)
     770:	afb000a0 	sw	$16,160($29)
     774:	afbf00c4 	sw	$31,196($29)
     778:	8c700000 	lw	$16,0($3)
     77c:	afbe00c0 	sw	$30,192($29)
     780:	afb700bc 	sw	$23,188($29)
     784:	afb600b8 	sw	$22,184($29)
     788:	afb500b4 	sw	$21,180($29)
     78c:	afb400b0 	sw	$20,176($29)
     790:	afb200a8 	sw	$18,168($29)
     794:	afb100a4 	sw	$17,164($29)
     798:	00001021 	move	$2,$0
     79c:	24040050 	li	$4,80
     7a0:	afa00060 	sw	$0,96($29)
    7a4:	8fa30060 	lw	$3,96($29)
     7a8:	00000000 	nop
     7ac:	00621821 	addu	$3,$3,$2
     7b0:	24420001 	addiu	$2,$2,1
     7b4:	1444fffb 	bne	$2,$4,7a4 <main+0x48>
     7b8:	afa30060 	sw	$3,96($29)
     7bc:	24020073 	li	$2,115
     7c0:	ac020000 	sw	$2,0($0)
     7c4:	24040050 	li	$4,80
     7c8:	00001021 	move	$2,$0
     7cc:	afa0005c 	sw	$0,92($29)
     7d0:	8fa3005c 	lw	$3,92($29)
     7d4:	00000000 	nop
     7d8:	00621821 	addu	$3,$3,$2
     7dc:	24420001 	addiu	$2,$2,1
     7e0:	1444fffb 	bne	$2,$4,7d0 <main+0x74>
     7e4:	afa3005c 	sw	$3,92($29)
     7e8:	24020074 	li	$2,116
     7ec:	ac020000 	sw	$2,0($0)
     7f0:	24040050 	li	$4,80
     7f4:	00001021 	move	$2,$0
     7f8:	afa00058 	sw	$0,88($29)
     7fc:	8fa30058 	lw	$3,88($29)
     800:	00000000 	nop
     804:	00621821 	addu	$3,$3,$2
     808:	24420001 	addiu	$2,$2,1
     80c:	1444fffb 	bne	$2,$4,7fc <main+0xa0>
     810:	afa30058 	sw	$3,88($29)
     814:	24020065 	li	$2,101
     818:	ac020000 	sw	$2,0($0)
     81c:	24040050 	li	$4,80
     820:	00001021 	move	$2,$0
     824:	afa00054 	sw	$0,84($29)
     828:	8fa30054 	lw	$3,84($29)
     82c:	00000000 	nop
     830:	00621821 	addu	$3,$3,$2
     834:	24420001 	addiu	$2,$2,1
     838:	1444fffb 	bne	$2,$4,828 <main+0xcc>
     83c:	afa30054 	sw	$3,84($29)
     840:	2402006e 	li	$2,110
     844:	ac020000 	sw	$2,0($0)
     848:	24040050 	li	$4,80
     84c:	00001021 	move	$2,$0
     850:	afa00050 	sw	$0,80($29)
     854:	8fa30050 	lw	$3,80($29)
     858:	00000000 	nop
     85c:	00621821 	addu	$3,$3,$2
     860:	24420001 	addiu	$2,$2,1
     864:	1444fffb 	bne	$2,$4,854 <main+0xf8>
     868:	afa30050 	sw	$3,80($29)
     86c:	24020063 	li	$2,99
     870:	ac020000 	sw	$2,0($0)
     874:	24040050 	li	$4,80
     878:	00001021 	move	$2,$0
     87c:	afa0004c 	sw	$0,76($29)
     880:	8fa3004c 	lw	$3,76($29)
     884:	00000000 	nop
     888:	00621821 	addu	$3,$3,$2
     88c:	24420001 	addiu	$2,$2,1
     890:	1444fffb 	bne	$2,$4,880 <main+0x124>
     894:	afa3004c 	sw	$3,76($29)
     898:	24020069 	li	$2,105
     89c:	ac020000 	sw	$2,0($0)
     8a0:	24040050 	li	$4,80
     8a4:	00001021 	move	$2,$0
     8a8:	afa00048 	sw	$0,72($29)
     8ac:	8fa30048 	lw	$3,72($29)
     8b0:	00000000 	nop
     8b4:	00621821 	addu	$3,$3,$2
     8b8:	24420001 	addiu	$2,$2,1
     8bc:	1444fffb 	bne	$2,$4,8ac <main+0x150>
     8c0:	afa30048 	sw	$3,72($29)
     8c4:	2402006c 	li	$2,108
     8c8:	ac020000 	sw	$2,0($0)
     8cc:	24040050 	li	$4,80
     8d0:	00001021 	move	$2,$0
     8d4:	afa00044 	sw	$0,68($29)
     8d8:	8fa30044 	lw	$3,68($29)
     8dc:	00000000 	nop
     8e0:	00621821 	addu	$3,$3,$2
     8e4:	24420001 	addiu	$2,$2,1
     8e8:	1444fffb 	bne	$2,$4,8d8 <main+0x17c>
     8ec:	afa30044 	sw	$3,68($29)
     8f0:	24020020 	li	$2,32
     8f4:	ac020000 	sw	$2,0($0)
     8f8:	24040050 	li	$4,80
     8fc:	00001021 	move	$2,$0
     900:	afa00040 	sw	$0,64($29)
     904:	8fa30040 	lw	$3,64($29)
     908:	00000000 	nop
     90c:	00621821 	addu	$3,$3,$2
     910:	24420001 	addiu	$2,$2,1
     914:	1444fffb 	bne	$2,$4,904 <main+0x1a8>
     918:	afa30040 	sw	$3,64($29)
     91c:	2402006e 	li	$2,110
     920:	ac020000 	sw	$2,0($0)
     924:	24040050 	li	$4,80
     928:	00001021 	move	$2,$0
     92c:	afa0003c 	sw	$0,60($29)
     930:	8fa3003c 	lw	$3,60($29)
     934:	00000000 	nop
     938:	00621821 	addu	$3,$3,$2
     93c:	24420001 	addiu	$2,$2,1
     940:	1444fffb 	bne	$2,$4,930 <main+0x1d4>
     944:	afa3003c 	sw	$3,60($29)
     948:	2402003d 	li	$2,61
     94c:	ac020000 	sw	$2,0($0)
     950:	0c00008c 	jal	230 <mylib_display_dec>
     954:	02602021 	move	$4,$19
     958:	afa00038 	sw	$0,56($29)
     95c:	00001021 	move	$2,$0
     960:	24040050 	li	$4,80
     964:	8fa30038 	lw	$3,56($29)
     968:	00000000 	nop
     96c:	00621821 	addu	$3,$3,$2
     970:	24420001 	addiu	$2,$2,1
     974:	1444fffb 	bne	$2,$4,964 <main+0x208>
     978:	afa30038 	sw	$3,56($29)
     97c:	24020020 	li	$2,32
     980:	ac020000 	sw	$2,0($0)
     984:	24040050 	li	$4,80
     988:	00001021 	move	$2,$0
     98c:	afa00034 	sw	$0,52($29)
     990:	8fa30034 	lw	$3,52($29)
     994:	00000000 	nop
     998:	00621821 	addu	$3,$3,$2
     99c:	24420001 	addiu	$2,$2,1
     9a0:	1444fffb 	bne	$2,$4,990 <main+0x234>
     9a4:	afa30034 	sw	$3,52($29)
     9a8:	24020069 	li	$2,105
     9ac:	ac020000 	sw	$2,0($0)
     9b0:	24040050 	li	$4,80
     9b4:	00001021 	move	$2,$0
     9b8:	afa00030 	sw	$0,48($29)
     9bc:	8fa30030 	lw	$3,48($29)
     9c0:	00000000 	nop
     9c4:	00621821 	addu	$3,$3,$2
     9c8:	24420001 	addiu	$2,$2,1
     9cc:	1444fffb 	bne	$2,$4,9bc <main+0x260>
     9d0:	afa30030 	sw	$3,48($29)
     9d4:	2402003d 	li	$2,61
     9d8:	ac020000 	sw	$2,0($0)
     9dc:	0c00008c 	jal	230 <mylib_display_dec>
     9e0:	02002021 	move	$4,$16
     9e4:	0c000177 	jal	5dc <mylib_display_newline>
     9e8:	00000000 	nop
     9ec:	70000035 	pinsw	$0,$0,$0,0x0
	...
     9f8:	70000075 	pinsw	$0,$0,$0,0x1
	...
     a04:	700000b5 	pinsw	$0,$0,$0,0x2
	...
     a10:	700000f5 	pinsw	$0,$0,$0,0x3
     a14:	02730018 	mult	$19,$19
     a18:	00001012 	mflo	$2
     a1c:	18400016 	blez	$2,a78 <main+0x31c>
     a20:	2442ffff 	addiu	$2,$2,-1
     a24:	000238c2 	srl	$7,$2,0x3
     a28:	8f888008 	lw	$8,-32760($28)
     a2c:	34028001 	li	$2,0x8001
     a30:	00e23821 	addu	$7,$7,$2
     a34:	00073940 	sll	$7,$7,0x5
     a38:	3c020010 	lui	$2,0x10
     a3c:	00001821 	move	$3,$0
     a40:	3c060010 	lui	$6,0x10
     a44:	00032080 	sll	$4,$3,0x2
     a48:	01042021 	addu	$4,$8,$4
     a4c:	00462821 	addu	$5,$2,$6
     a50:	78810000 	lq	$1,0($4)
     a54:	78820010 	lq	$2,16($4)
     a58:	7ca00000 	sq	$0,0($5)
     a5c:	7ca00010 	sq	$0,16($5)
     a60:	7c410000 	sq	$1,0($2)
     a64:	7c420010 	sq	$2,16($2)
     a68:	24630008 	addiu	$3,$3,8
     a6c:	24420020 	addiu	$2,$2,32
     a70:	1447fff4 	bne	$2,$7,a44 <main+0x2e8>
     a74:	3063ffff 	andi	$3,$3,0xffff
     a78:	001017c2 	srl	$2,$16,0x1f
     a7c:	00508021 	addu	$16,$2,$16
     a80:	00108043 	sra	$16,$16,0x1
     a84:	1a0001cf 	blez	$16,11c4 <main+0xa68>
     a88:	afb00088 	sw	$16,136($29)
     a8c:	26620001 	addiu	$2,$19,1
     a90:	00021080 	sll	$2,$2,0x2
     a94:	3c0e0010 	lui	$14,0x10
     a98:	2452fffc 	addiu	$18,$2,-4
     a9c:	024e2821 	addu	$5,$18,$14
     aa0:	3c040020 	lui	$4,0x20
     aa4:	afa50084 	sw	$5,132($29)
     aa8:	00131823 	negu	$3,$19
     aac:	00442821 	addu	$5,$2,$4
     ab0:	004e1021 	addu	$2,$2,$14
     ab4:	00031880 	sll	$3,$3,0x2
     ab8:	afa20090 	sw	$2,144($29)
     abc:	2a620003 	slti	$2,$19,3
     ac0:	afa20094 	sw	$2,148($29)
     ac4:	006e1023 	subu	$2,$3,$14
     ac8:	2671fff7 	addiu	$17,$19,-9
     acc:	3c0f0010 	lui	$15,0x10
     ad0:	afa50080 	sw	$5,128($29)
     ad4:	afa2006c 	sw	$2,108($29)
     ad8:	2665ffff 	addiu	$5,$19,-1
     adc:	8fa20084 	lw	$2,132($29)
     ae0:	006f1821 	addu	$3,$3,$15
     ae4:	00118882 	srl	$17,$17,0x2
     ae8:	afa50068 	sw	$5,104($29)
     aec:	024e2823 	subu	$5,$18,$14
     af0:	26310002 	addiu	$17,$17,2
     af4:	2666fffc 	addiu	$6,$19,-4
     af8:	02442021 	addu	$4,$18,$4
     afc:	afa50070 	sw	$5,112($29)
     b00:	afa30074 	sw	$3,116($29)
     b04:	3c0538e3 	lui	$5,0x38e3
     b08:	3c03fff0 	lui	$3,0xfff0
     b0c:	afa4008c 	sw	$4,140($29)
     b10:	0013a040 	sll	$20,$19,0x1
     b14:	00118880 	sll	$17,$17,0x2
     b18:	afa0007c 	sw	$0,124($29)
     b1c:	28cc0005 	slti	$12,$6,5
     b20:	34a58e39 	ori	$5,$5,0x8e39
     b24:	25cefff0 	addiu	$14,$14,-16
     b28:	3c100020 	lui	$16,0x20
     b2c:	afa20078 	sw	$2,120($29)
     b30:	246dfff0 	addiu	$13,$3,-16
     b34:	8fa20094 	lw	$2,148($29)
     b38:	00000000 	nop
     b3c:	14400237 	bnez	$2,141c <main+0xcc0>
     b40:	8fb6008c 	lw	$22,140($29)
     b44:	0260c021 	move	$24,$19
     b48:	24170004 	li	$23,4
     b4c:	24190001 	li	$25,1
     b50:	8fa3006c 	lw	$3,108($29)
     b54:	00000000 	nop
     b58:	00761021 	addu	$2,$3,$22
     b5c:	78420010 	lq	$2,16($2)
     b60:	78410000 	lq	$1,0($2)
     b64:	00000000 	nop
     b68:	7040083d 	pextw	$1,$2,0x0
     b6c:	70201838 	psllww	$3,$1,$0
     b70:	00000000 	nop
     b74:	7021203a 	psrlww	$4,$1,$1
     b78:	70236808 	paddw	$13,$1,$3
	...
     b84:	71a46808 	paddw	$13,$13,$4
     b88:	3c03fff0 	lui	$3,0xfff0
     b8c:	02c31021 	addu	$2,$22,$3
     b90:	78460010 	lq	$6,16($2)
     b94:	78450000 	lq	$5,0($2)
     b98:	00000000 	nop
     b9c:	70c0083d 	pextw	$1,$6,0x0
     ba0:	70a03838 	psllww	$7,$5,$0
     ba4:	00000000 	nop
     ba8:	70a1403a 	psrlww	$8,$5,$1
     bac:	70a77008 	paddw	$14,$5,$7
	...
     bb8:	71c87008 	paddw	$14,$14,$8
     bbc:	8fa30070 	lw	$3,112($29)
     bc0:	27390001 	addiu	$25,$25,1
     bc4:	00761021 	addu	$2,$3,$22
     bc8:	784a0010 	lq	$10,16($2)
     bcc:	78490000 	lq	$9,0($2)
     bd0:	00000000 	nop
     bd4:	7140083d 	pextw	$1,$10,0x0
     bd8:	71205838 	psllww	$11,$9,$0
     bdc:	00000000 	nop
     be0:	7121603a 	psrlww	$12,$9,$1
     be4:	712b7808 	paddw	$15,$9,$11
	...
     bf0:	71ec7808 	paddw	$15,$15,$12
     bf4:	71ae8008 	paddw	$16,$13,$14
     bf8:	00a00821 	move	$1,$5
     bfc:	00000000 	nop
     c00:	720f8008 	paddw	$16,$16,$15
	...
     c0c:	72010609 	pmultsw	$16,$1
     c10:	70008209 	pmfhi	$16
	...
     c1c:	7010807f 	psraw	$16,$16,0x1
     c20:	8ec20000 	lw	$2,0($22)
	...
     c2c:	72028035 	pinsw	$16,$16,$2,0x0
	...
     c38:	7ed00000 	sq	$16,0($22)
     c3c:	158001eb 	bnez	$12,13ec <main+0xc90>
     c40:	3c03fff0 	lui	$3,0xfff0
     c44:	34630020 	ori	$3,$3,0x20
     c48:	0013a823 	negu	$21,$19
     c4c:	02c31021 	addu	$2,$22,$3
     c50:	02f4f821 	addu	$31,$23,$20
     c54:	0015a880 	sll	$21,$21,0x2
     c58:	0278f021 	addu	$30,$19,$24
     c5c:	00135880 	sll	$11,$19,0x2
     c60:	24030004 	li	$3,4
     c64:	702040fd 	pextw	$8,$1,0x3
     c68:	70a038fd 	pextw	$7,$5,0x3
     c6c:	712020fd 	pextw	$4,$9,0x3
     c70:	00554821 	addu	$9,$2,$21
     c74:	004b5021 	addu	$10,$2,$11
     c78:	70400808 	paddw	$1,$2,$0
     c7c:	79220000 	lq	$2,0($9)
     c80:	70c02808 	paddw	$5,$6,$0
     c84:	78460000 	lq	$6,0($2)
     c88:	71404808 	paddw	$9,$10,$0
     c8c:	794a0000 	lq	$10,0($10)
     c90:	7040083d 	pextw	$1,$2,0x0
     c94:	70281838 	psllww	$3,$1,$8
     c98:	00000000 	nop
     c9c:	7021203a 	psrlww	$4,$1,$1
     ca0:	70236808 	paddw	$13,$1,$3
	...
     cac:	71a46808 	paddw	$13,$13,$4
     cb0:	70c0083d 	pextw	$1,$6,0x0
     cb4:	70a73838 	psllww	$7,$5,$7
     cb8:	00000000 	nop
     cbc:	70a1403a 	psrlww	$8,$5,$1
     cc0:	70a77008 	paddw	$14,$5,$7
	...
     ccc:	71c87008 	paddw	$14,$14,$8
     cd0:	7140083d 	pextw	$1,$10,0x0
     cd4:	71245838 	psllww	$11,$9,$4
     cd8:	00000000 	nop
     cdc:	7121603a 	psrlww	$12,$9,$1
     ce0:	712b7808 	paddw	$15,$9,$11
	...
     cec:	71ec7808 	paddw	$15,$15,$12
     cf0:	004e2021 	addu	$4,$2,$14
     cf4:	71ae8008 	paddw	$16,$13,$14
     cf8:	00a00821 	move	$1,$5
     cfc:	00000000 	nop
     d00:	720f8008 	paddw	$16,$16,$15
	...
     d0c:	72010609 	pmultsw	$16,$1
     d10:	70008209 	pmfhi	$16
	...
     d1c:	7010807f 	psraw	$16,$16,0x1
	...
     d28:	7c900000 	sq	$16,0($4)
     d2c:	24630004 	addiu	$3,$3,4
     d30:	0066202a 	slt	$4,$3,$6
     d34:	1480ffcb 	bnez	$4,c64 <main+0x508>
     d38:	24420010 	addiu	$2,$2,16
     d3c:	02201021 	move	$2,$17
     d40:	02202021 	move	$4,$17
     d44:	702048fd 	pextw	$9,$1,0x3
     d48:	70a040fd 	pextw	$8,$5,0x3
     d4c:	712038fd 	pextw	$7,$9,0x3
     d50:	03021821 	addu	$3,$24,$2
     d54:	02e25021 	addu	$10,$23,$2
     d58:	24630004 	addiu	$3,$3,4
     d5c:	005f1021 	addu	$2,$2,$31
     d60:	00031880 	sll	$3,$3,0x2
     d64:	000a5080 	sll	$10,$10,0x2
     d68:	00021080 	sll	$2,$2,0x2
     d6c:	014f5021 	addu	$10,$10,$15
     d70:	006f5821 	addu	$11,$3,$15
     d74:	004f1021 	addu	$2,$2,$15
     d78:	70400808 	paddw	$1,$2,$0
     d7c:	79420000 	lq	$2,0($10)
     d80:	70c02808 	paddw	$5,$6,$0
     d84:	79660000 	lq	$6,0($11)
     d88:	71404808 	paddw	$9,$10,$0
     d8c:	784a0000 	lq	$10,0($2)
     d90:	7040083d 	pextw	$1,$2,0x0
     d94:	70291838 	psllww	$3,$1,$9
     d98:	00000000 	nop
     d9c:	7021203a 	psrlww	$4,$1,$1
     da0:	70236808 	paddw	$13,$1,$3
	...
     dac:	71a46808 	paddw	$13,$13,$4
     db0:	70c0083d 	pextw	$1,$6,0x0
     db4:	70a83838 	psllww	$7,$5,$8
     db8:	00000000 	nop
     dbc:	70a1403a 	psrlww	$8,$5,$1
     dc0:	70a77008 	paddw	$14,$5,$7
	...
     dcc:	71c87008 	paddw	$14,$14,$8
     dd0:	7140083d 	pextw	$1,$10,0x0
     dd4:	71275838 	psllww	$11,$9,$7
     dd8:	00000000 	nop
     ddc:	7121603a 	psrlww	$12,$9,$1
     de0:	712b7808 	paddw	$15,$9,$11
	...
     dec:	71ec7808 	paddw	$15,$15,$12
     df0:	71ae8008 	paddw	$16,$13,$14
     df4:	00a00821 	move	$1,$5
     df8:	00000000 	nop
     dfc:	720f8008 	paddw	$16,$16,$15
	...
     e08:	72010609 	pmultsw	$16,$1
     e0c:	70008209 	pmfhi	$16
	...
     e18:	7010807f 	psraw	$16,$16,0x1
     e1c:	03041021 	addu	$2,$24,$4
     e20:	24420003 	addiu	$2,$2,3
     e24:	00021080 	sll	$2,$2,0x2
     e28:	02021021 	addu	$2,$16,$2
     e2c:	8c420000 	lw	$2,0($2)
	...
     e38:	720280f5 	pinsw	$16,$16,$2,0x3
     e3c:	2463fff0 	addiu	$3,$3,-16
     e40:	00701821 	addu	$3,$3,$16
	...
     e4c:	7c700000 	sq	$16,0($3)
     e50:	8fa20068 	lw	$2,104($29)
     e54:	02d2b021 	addu	$22,$22,$18
     e58:	02f3b821 	addu	$23,$23,$19
     e5c:	1722ff3c 	bne	$25,$2,b50 <main+0x3f4>
     e60:	03c0c021 	move	$24,$30
     e64:	8fa20080 	lw	$2,128($29)
     e68:	3c030999 	lui	$3,0x999
     e6c:	8fb60084 	lw	$22,132($29)
     e70:	34639999 	ori	$3,$3,0x9999
     e74:	ac430000 	sw	$3,0($2)
     e78:	0260c021 	move	$24,$19
     e7c:	24170004 	li	$23,4
     e80:	24190001 	li	$25,1
     e84:	8fa30074 	lw	$3,116($29)
     e88:	00000000 	nop
     e8c:	00761021 	addu	$2,$3,$22
     e90:	78420010 	lq	$2,16($2)
     e94:	78410000 	lq	$1,0($2)
     e98:	00000000 	nop
     e9c:	7040083d 	pextw	$1,$2,0x0
     ea0:	70201838 	psllww	$3,$1,$0
     ea4:	00000000 	nop
     ea8:	7021203a 	psrlww	$4,$1,$1
     eac:	70236808 	paddw	$13,$1,$3
	...
     eb8:	71a46808 	paddw	$13,$13,$4
     ebc:	02cf1021 	addu	$2,$22,$15
     ec0:	78460010 	lq	$6,16($2)
     ec4:	78450000 	lq	$5,0($2)
     ec8:	00000000 	nop
     ecc:	70c0083d 	pextw	$1,$6,0x0
     ed0:	70a03838 	psllww	$7,$5,$0
     ed4:	00000000 	nop
     ed8:	70a1403a 	psrlww	$8,$5,$1
     edc:	70a77008 	paddw	$14,$5,$7
	...
     ee8:	71c87008 	paddw	$14,$14,$8
     eec:	8fa30078 	lw	$3,120($29)
     ef0:	27390001 	addiu	$25,$25,1
     ef4:	00761021 	addu	$2,$3,$22
     ef8:	784a0010 	lq	$10,16($2)
     efc:	78490000 	lq	$9,0($2)
     f00:	00000000 	nop
     f04:	7140083d 	pextw	$1,$10,0x0
     f08:	71205838 	psllww	$11,$9,$0
     f0c:	00000000 	nop
     f10:	7121603a 	psrlww	$12,$9,$1
     f14:	712b7808 	paddw	$15,$9,$11
	...
     f20:	71ec7808 	paddw	$15,$15,$12
     f24:	71ae8008 	paddw	$16,$13,$14
     f28:	00a00821 	move	$1,$5
     f2c:	00000000 	nop
     f30:	720f8008 	paddw	$16,$16,$15
	...
     f3c:	72010609 	pmultsw	$16,$1
     f40:	70008209 	pmfhi	$16
	...
     f4c:	7010807f 	psraw	$16,$16,0x1
     f50:	8ec20000 	lw	$2,0($22)
	...
     f5c:	72028035 	pinsw	$16,$16,$2,0x0
	...
     f68:	7ed00000 	sq	$16,0($22)
     f6c:	1580011a 	bnez	$12,13d8 <main+0xc7c>
     f70:	3c030010 	lui	$3,0x10
     f74:	34630020 	ori	$3,$3,0x20
     f78:	0013a823 	negu	$21,$19
     f7c:	02c31021 	addu	$2,$22,$3
     f80:	02f4f821 	addu	$31,$23,$20
     f84:	0015a880 	sll	$21,$21,0x2
     f88:	0278f021 	addu	$30,$19,$24
     f8c:	00135880 	sll	$11,$19,0x2
     f90:	24030004 	li	$3,4
     f94:	702040fd 	pextw	$8,$1,0x3
     f98:	70a038fd 	pextw	$7,$5,0x3
     f9c:	712020fd 	pextw	$4,$9,0x3
     fa0:	00554821 	addu	$9,$2,$21
     fa4:	004b5021 	addu	$10,$2,$11
     fa8:	70400808 	paddw	$1,$2,$0
     fac:	79220000 	lq	$2,0($9)
     fb0:	70c02808 	paddw	$5,$6,$0
     fb4:	78460000 	lq	$6,0($2)
     fb8:	71404808 	paddw	$9,$10,$0
     fbc:	794a0000 	lq	$10,0($10)
     fc0:	7040083d 	pextw	$1,$2,0x0
     fc4:	70281838 	psllww	$3,$1,$8
     fc8:	00000000 	nop
     fcc:	7021203a 	psrlww	$4,$1,$1
     fd0:	70236808 	paddw	$13,$1,$3
	...
     fdc:	71a46808 	paddw	$13,$13,$4
     fe0:	70c0083d 	pextw	$1,$6,0x0
     fe4:	70a73838 	psllww	$7,$5,$7
     fe8:	00000000 	nop
     fec:	70a1403a 	psrlww	$8,$5,$1
     ff0:	70a77008 	paddw	$14,$5,$7
	...
     ffc:	71c87008 	paddw	$14,$14,$8
    1000:	7140083d 	pextw	$1,$10,0x0
    1004:	71245838 	psllww	$11,$9,$4
    1008:	00000000 	nop
    100c:	7121603a 	psrlww	$12,$9,$1
    1010:	712b7808 	paddw	$15,$9,$11
	...
    101c:	71ec7808 	paddw	$15,$15,$12
    1020:	004d2021 	addu	$4,$2,$13
    1024:	71ae8008 	paddw	$16,$13,$14
    1028:	00a00821 	move	$1,$5
    102c:	00000000 	nop
    1030:	720f8008 	paddw	$16,$16,$15
	...
    103c:	72010609 	pmultsw	$16,$1
    1040:	70008209 	pmfhi	$16
	...
    104c:	7010807f 	psraw	$16,$16,0x1
	...
    1058:	7c900000 	sq	$16,0($4)
    105c:	24630004 	addiu	$3,$3,4
    1060:	0066202a 	slt	$4,$3,$6
    1064:	1480ffcb 	bnez	$4,f94 <main+0x838>
    1068:	24420010 	addiu	$2,$2,16
    106c:	02201021 	move	$2,$17
    1070:	02202021 	move	$4,$17
    1074:	702048fd 	pextw	$9,$1,0x3
    1078:	70a040fd 	pextw	$8,$5,0x3
    107c:	712038fd 	pextw	$7,$9,0x3
    1080:	03021821 	addu	$3,$24,$2
    1084:	02e25021 	addu	$10,$23,$2
    1088:	24630004 	addiu	$3,$3,4
    108c:	005f1021 	addu	$2,$2,$31
    1090:	00031880 	sll	$3,$3,0x2
    1094:	000a5080 	sll	$10,$10,0x2
    1098:	00021080 	sll	$2,$2,0x2
    109c:	01505021 	addu	$10,$10,$16
    10a0:	00705821 	addu	$11,$3,$16
    10a4:	00501021 	addu	$2,$2,$16
    10a8:	70400808 	paddw	$1,$2,$0
    10ac:	79420000 	lq	$2,0($10)
    10b0:	70c02808 	paddw	$5,$6,$0
    10b4:	79660000 	lq	$6,0($11)
    10b8:	71404808 	paddw	$9,$10,$0
    10bc:	784a0000 	lq	$10,0($2)
    10c0:	7040083d 	pextw	$1,$2,0x0
    10c4:	70291838 	psllww	$3,$1,$9
    10c8:	00000000 	nop
    10cc:	7021203a 	psrlww	$4,$1,$1
    10d0:	70236808 	paddw	$13,$1,$3
	...
    10dc:	71a46808 	paddw	$13,$13,$4
    10e0:	70c0083d 	pextw	$1,$6,0x0
    10e4:	70a83838 	psllww	$7,$5,$8
    10e8:	00000000 	nop
    10ec:	70a1403a 	psrlww	$8,$5,$1
    10f0:	70a77008 	paddw	$14,$5,$7
	...
    10fc:	71c87008 	paddw	$14,$14,$8
    1100:	7140083d 	pextw	$1,$10,0x0
    1104:	71275838 	psllww	$11,$9,$7
    1108:	00000000 	nop
    110c:	7121603a 	psrlww	$12,$9,$1
    1110:	712b7808 	paddw	$15,$9,$11
	...
    111c:	71ec7808 	paddw	$15,$15,$12
    1120:	71ae8008 	paddw	$16,$13,$14
    1124:	00a00821 	move	$1,$5
    1128:	00000000 	nop
    112c:	720f8008 	paddw	$16,$16,$15
	...
    1138:	72010609 	pmultsw	$16,$1
    113c:	70008209 	pmfhi	$16
	...
    1148:	7010807f 	psraw	$16,$16,0x1
    114c:	03041021 	addu	$2,$24,$4
    1150:	24420003 	addiu	$2,$2,3
    1154:	00021080 	sll	$2,$2,0x2
    1158:	01e21021 	addu	$2,$15,$2
    115c:	8c420000 	lw	$2,0($2)
	...
    1168:	720280f5 	pinsw	$16,$16,$2,0x3
    116c:	2463fff0 	addiu	$3,$3,-16
    1170:	006f1821 	addu	$3,$3,$15
	...
    117c:	7c700000 	sq	$16,0($3)
    1180:	8fa20068 	lw	$2,104($29)
    1184:	02d2b021 	addu	$22,$22,$18
    1188:	02f3b821 	addu	$23,$23,$19
    118c:	1722ff3d 	bne	$25,$2,e84 <main+0x728>
    1190:	03c0c021 	move	$24,$30
    1194:	8fa3007c 	lw	$3,124($29)
    1198:	8fa20090 	lw	$2,144($29)
    119c:	24630001 	addiu	$3,$3,1
    11a0:	afa3007c 	sw	$3,124($29)
    11a4:	3c030999 	lui	$3,0x999
    11a8:	34639999 	ori	$3,$3,0x9999
    11ac:	ac430000 	sw	$3,0($2)
    11b0:	8fa2007c 	lw	$2,124($29)
    11b4:	8fa30088 	lw	$3,136($29)
    11b8:	00000000 	nop
    11bc:	1443fe5f 	bne	$2,$3,b3c <main+0x3e0>
    11c0:	8fa20094 	lw	$2,148($29)
    11c4:	0c000177 	jal	5dc <mylib_display_newline>
    11c8:	3c120010 	lui	$18,0x10
    11cc:	00131880 	sll	$3,$19,0x2
    11d0:	afa3006c 	sw	$3,108($29)
    11d4:	24110010 	li	$17,16
    11d8:	24140050 	li	$20,80
    11dc:	24100020 	li	$16,32
    11e0:	afb30070 	sw	$19,112($29)
    11e4:	7a410000 	lq	$1,0($18)
    11e8:	7a420010 	lq	$2,16($18)
    11ec:	00000000 	nop
    11f0:	7020203d 	pextw	$4,$1,0x0
    11f4:	7020287d 	pextw	$5,$1,0x1
    11f8:	7020f0bd 	pextw	$30,$1,0x2
    11fc:	7020b8fd 	pextw	$23,$1,0x3
    1200:	7040b03d 	pextw	$22,$2,0x0
    1204:	7040a87d 	pextw	$21,$2,0x1
    1208:	704098bd 	pextw	$19,$2,0x2
    120c:	704010fd 	pextw	$2,$2,0x3
    1210:	afa20068 	sw	$2,104($29)
    1214:	0c000100 	jal	400 <mylib_display_hex>
    1218:	afa50098 	sw	$5,152($29)
    121c:	8fa50098 	lw	$5,152($29)
    1220:	afa0002c 	sw	$0,44($29)
    1224:	00001021 	move	$2,$0
    1228:	8fa3002c 	lw	$3,44($29)
    122c:	00000000 	nop
    1230:	00621821 	addu	$3,$3,$2
    1234:	24420001 	addiu	$2,$2,1
    1238:	1454fffb 	bne	$2,$20,1228 <main+0xacc>
    123c:	afa3002c 	sw	$3,44($29)
    1240:	ac100000 	sw	$16,0($0)
    1244:	0c000100 	jal	400 <mylib_display_hex>
    1248:	00a02021 	move	$4,$5
    124c:	afa00028 	sw	$0,40($29)
    1250:	00001021 	move	$2,$0
    1254:	8fa30028 	lw	$3,40($29)
    1258:	00000000 	nop
    125c:	00621821 	addu	$3,$3,$2
    1260:	24420001 	addiu	$2,$2,1
    1264:	1454fffb 	bne	$2,$20,1254 <main+0xaf8>
    1268:	afa30028 	sw	$3,40($29)
    126c:	ac100000 	sw	$16,0($0)
    1270:	0c000100 	jal	400 <mylib_display_hex>
    1274:	03c02021 	move	$4,$30
    1278:	afa00024 	sw	$0,36($29)
    127c:	00001021 	move	$2,$0
    1280:	8fa30024 	lw	$3,36($29)
    1284:	00000000 	nop
    1288:	00621821 	addu	$3,$3,$2
    128c:	24420001 	addiu	$2,$2,1
    1290:	1454fffb 	bne	$2,$20,1280 <main+0xb24>
    1294:	afa30024 	sw	$3,36($29)
    1298:	ac100000 	sw	$16,0($0)
    129c:	0c000100 	jal	400 <mylib_display_hex>
    12a0:	02e02021 	move	$4,$23
    12a4:	afa00020 	sw	$0,32($29)
    12a8:	00001021 	move	$2,$0
    12ac:	8fa30020 	lw	$3,32($29)
    12b0:	00000000 	nop
    12b4:	00621821 	addu	$3,$3,$2
    12b8:	24420001 	addiu	$2,$2,1
    12bc:	1454fffb 	bne	$2,$20,12ac <main+0xb50>
    12c0:	afa30020 	sw	$3,32($29)
    12c4:	ac100000 	sw	$16,0($0)
    12c8:	0c000100 	jal	400 <mylib_display_hex>
    12cc:	02c02021 	move	$4,$22
    12d0:	afa0001c 	sw	$0,28($29)
    12d4:	00001021 	move	$2,$0
    12d8:	8fa3001c 	lw	$3,28($29)
    12dc:	00000000 	nop
    12e0:	00621821 	addu	$3,$3,$2
    12e4:	24420001 	addiu	$2,$2,1
    12e8:	1454fffb 	bne	$2,$20,12d8 <main+0xb7c>
    12ec:	afa3001c 	sw	$3,28($29)
    12f0:	ac100000 	sw	$16,0($0)
    12f4:	0c000100 	jal	400 <mylib_display_hex>
    12f8:	02a02021 	move	$4,$21
    12fc:	afa00018 	sw	$0,24($29)
    1300:	00001021 	move	$2,$0
    1304:	8fa30018 	lw	$3,24($29)
    1308:	00000000 	nop
    130c:	00621821 	addu	$3,$3,$2
    1310:	24420001 	addiu	$2,$2,1
    1314:	1454fffb 	bne	$2,$20,1304 <main+0xba8>
    1318:	afa30018 	sw	$3,24($29)
    131c:	ac100000 	sw	$16,0($0)
    1320:	0c000100 	jal	400 <mylib_display_hex>
    1324:	02602021 	move	$4,$19
    1328:	afa00014 	sw	$0,20($29)
    132c:	00001021 	move	$2,$0
    1330:	8fa30014 	lw	$3,20($29)
    1334:	00000000 	nop
    1338:	00621821 	addu	$3,$3,$2
    133c:	24420001 	addiu	$2,$2,1
    1340:	1454fffb 	bne	$2,$20,1330 <main+0xbd4>
    1344:	afa30014 	sw	$3,20($29)
    1348:	8fa40068 	lw	$4,104($29)
    134c:	0c000100 	jal	400 <mylib_display_hex>
    1350:	ac100000 	sw	$16,0($0)
    1354:	afa00010 	sw	$0,16($29)
    1358:	00001021 	move	$2,$0
    135c:	8fa30010 	lw	$3,16($29)
    1360:	00000000 	nop
    1364:	00621821 	addu	$3,$3,$2
    1368:	24420001 	addiu	$2,$2,1
    136c:	1454fffb 	bne	$2,$20,135c <main+0xc00>
    1370:	afa30010 	sw	$3,16($29)
    1374:	ac100000 	sw	$16,0($0)
    1378:	0c000177 	jal	5dc <mylib_display_newline>
    137c:	2631ffff 	addiu	$17,$17,-1
    1380:	8fa3006c 	lw	$3,108($29)
    1384:	1620ff97 	bnez	$17,11e4 <main+0xa88>
    1388:	02439021 	addu	$18,$18,$3
    138c:	8fb30070 	lw	$19,112($29)
    1390:	00000000 	nop
    1394:	1a60001a 	blez	$19,1400 <main+0xca4>
    1398:	00001021 	move	$2,$0
    139c:	00003821 	move	$7,$0
    13a0:	00002021 	move	$4,$0
    13a4:	3c060010 	lui	$6,0x10
    13a8:	00604021 	move	$8,$3
    13ac:	00482821 	addu	$5,$2,$8
    13b0:	00461821 	addu	$3,$2,$6
    13b4:	8c630000 	lw	$3,0($3)
    13b8:	24420004 	addiu	$2,$2,4
    13bc:	14a2fffc 	bne	$5,$2,13b0 <main+0xc54>
    13c0:	00832021 	addu	$4,$4,$3
    13c4:	24e70001 	addiu	$7,$7,1
    13c8:	10f3000e 	beq	$7,$19,1404 <main+0xca8>
    13cc:	00a01021 	move	$2,$5
    13d0:	080004ec 	j	13b0 <main+0xc54>
    13d4:	00482821 	addu	$5,$2,$8
    13d8:	02f4f821 	addu	$31,$23,$20
    13dc:	24020004 	li	$2,4
    13e0:	24040004 	li	$4,4
    13e4:	0800041d 	j	1074 <main+0x918>
    13e8:	0278f021 	addu	$30,$19,$24
    13ec:	02f4f821 	addu	$31,$23,$20
    13f0:	24020004 	li	$2,4
    13f4:	24040004 	li	$4,4
    13f8:	08000351 	j	d44 <main+0x5e8>
    13fc:	0278f021 	addu	$30,$19,$24
    1400:	00002021 	move	$4,$0
    1404:	0c000100 	jal	400 <mylib_display_hex>
    1408:	00000000 	nop
    140c:	0c000177 	jal	5dc <mylib_display_newline>
    1410:	00000000 	nop
    1414:	0c0001a1 	jal	684 <mylib_finalize>
    1418:	00000000 	nop
    141c:	8fa20080 	lw	$2,128($29)
    1420:	3c030999 	lui	$3,0x999
    1424:	34639999 	ori	$3,$3,0x9999
    1428:	ac430000 	sw	$3,0($2)
    142c:	8fa3007c 	lw	$3,124($29)
    1430:	8fa20090 	lw	$2,144($29)
    1434:	24630001 	addiu	$3,$3,1
    1438:	afa3007c 	sw	$3,124($29)
    143c:	3c030999 	lui	$3,0x999
    1440:	34639999 	ori	$3,$3,0x9999
    1444:	ac430000 	sw	$3,0($2)
    1448:	8fa2007c 	lw	$2,124($29)
    144c:	8fa30088 	lw	$3,136($29)
    1450:	00000000 	nop
    1454:	1443fdb9 	bne	$2,$3,b3c <main+0x3e0>
    1458:	8fa20094 	lw	$2,148($29)
    145c:	08000471 	j	11c4 <main+0xa68>
    1460:	00000000 	nop
