
stencil:     file format elf32-littlemips


Disassembly of section .startup:

00000000 <_start>:
   0:	00000000 	nop
   4:	00000821 	move	$1,$0
   8:	00001021 	move	$2,$0
   c:	00001821 	move	$3,$0
  10:	00002021 	move	$4,$0
  14:	00002821 	move	$5,$0
  18:	00003021 	move	$6,$0
  1c:	00003821 	move	$7,$0
  20:	00004021 	move	$8,$0
  24:	00004821 	move	$9,$0
  28:	00005021 	move	$10,$0
  2c:	00005821 	move	$11,$0
  30:	00006021 	move	$12,$0
  34:	00006821 	move	$13,$0
  38:	00007021 	move	$14,$0
  3c:	00007821 	move	$15,$0
  40:	00008021 	move	$16,$0
  44:	00008821 	move	$17,$0
  48:	00009021 	move	$18,$0
  4c:	00009821 	move	$19,$0
  50:	0000a021 	move	$20,$0
  54:	0000a821 	move	$21,$0
  58:	0000b021 	move	$22,$0
  5c:	0000b821 	move	$23,$0
  60:	0000c021 	move	$24,$0
  64:	0000c821 	move	$25,$0
  68:	0000d021 	move	$26,$0
  6c:	0000d821 	move	$27,$0
  70:	0000f021 	move	$30,$0
  74:	0000f821 	move	$31,$0
  78:	3c1c0005 	lui	$28,0x5
  7c:	279c7ff0 	addiu	$28,$28,32752
  80:	3c1d7fff 	lui	$29,0x7fff
  84:	37bdff00 	ori	$29,$29,0xff00
  88:	08000307 	j	c1c <main>
  8c:	00000000 	nop

Disassembly of section .text:

00000200 <output_buffer_put>:
     200:	8f828410 	lw	$2,-31728($28)
     204:	3c070005 	lui	$7,0x5
     208:	24e70000 	addiu	$7,$7,0
     20c:	24430001 	addiu	$3,$2,1
     210:	28650400 	slti	$5,$3,1024
     214:	00471021 	addu	$2,$2,$7
     218:	af838410 	sw	$3,-31728($28)
     21c:	14a00008 	bnez	$5,240 <output_buffer_put+0x40>
     220:	a0440000 	sb	$4,0($2)
     224:	24040001 	li	$4,1
     228:	00e02821 	move	$5,$7
     22c:	00603021 	move	$6,$3
     230:	24020fa4 	li	$2,4004
     234:	0000000c 	syscall
     238:	00401821 	move	$3,$2
     23c:	af808410 	sw	$0,-31728($28)
     240:	03e00008 	jr	$31
     244:	00000000 	nop

00000248 <mylib_wait>:
     248:	27bdfff8 	addiu	$29,$29,-8
     24c:	00001021 	move	$2,$0
     250:	afa00000 	sw	$0,0($29)
     254:	24040028 	li	$4,40
     258:	8fa30000 	lw	$3,0($29)
     25c:	00000000 	nop
     260:	00621821 	addu	$3,$3,$2
     264:	24420001 	addiu	$2,$2,1
     268:	1444fffb 	bne	$2,$4,258 <mylib_wait+0x10>
     26c:	afa30000 	sw	$3,0($29)
     270:	03e00008 	jr	$31
     274:	27bd0008 	addiu	$29,$29,8

00000278 <mylib_display_dec>:
     278:	27bdfbe0 	addiu	$29,$29,-1056
     27c:	afbf041c 	sw	$31,1052($29)
     280:	afb20418 	sw	$18,1048($29)
     284:	afb10414 	sw	$17,1044($29)
     288:	04800018 	bltz	$4,2ec <mylib_display_dec+0x74>
     28c:	afb00410 	sw	$16,1040($29)
     290:	14800068 	bnez	$4,434 <mylib_display_dec+0x1bc>
     294:	24020030 	li	$2,48
     298:	afa20010 	sw	$2,16($29)
     29c:	24040030 	li	$4,48
     2a0:	00008021 	move	$16,$0
     2a4:	27a90010 	addiu	$9,$29,16
     2a8:	2610ffff 	addiu	$16,$16,-1
     2ac:	00108880 	sll	$17,$16,0x2
     2b0:	01318821 	addu	$17,$9,$17
     2b4:	080000b1 	j	2c4 <mylib_display_dec+0x4c>
     2b8:	2412ffff 	li	$18,-1
     2bc:	8e240000 	lw	$4,0($17)
     2c0:	2631fffc 	addiu	$17,$17,-4
     2c4:	0c000080 	jal	200 <output_buffer_put>
     2c8:	00000000 	nop
     2cc:	1612fffb 	bne	$16,$18,2bc <mylib_display_dec+0x44>
     2d0:	2610ffff 	addiu	$16,$16,-1
     2d4:	8fbf041c 	lw	$31,1052($29)
     2d8:	8fb20418 	lw	$18,1048($29)
     2dc:	8fb10414 	lw	$17,1044($29)
     2e0:	8fb00410 	lw	$16,1040($29)
     2e4:	03e00008 	jr	$31
     2e8:	27bd0420 	addiu	$29,$29,1056
     2ec:	00042023 	negu	$4,$4
     2f0:	240b0001 	li	$11,1
     2f4:	3c066666 	lui	$6,0x6666
     2f8:	24c66667 	addiu	$6,$6,26215
     2fc:	00860018 	mult	$4,$6
     300:	00042fc3 	sra	$5,$4,0x1f
     304:	27a90010 	addiu	$9,$29,16
     308:	01201821 	move	$3,$9
     30c:	00004021 	move	$8,$0
     310:	240a0001 	li	$10,1
     314:	240c0002 	li	$12,2
     318:	240d0003 	li	$13,3
     31c:	240e0004 	li	$14,4
     320:	240f0005 	li	$15,5
     324:	24110006 	li	$17,6
     328:	00001010 	mfhi	$2
     32c:	00021083 	sra	$2,$2,0x2
     330:	00451023 	subu	$2,$2,$5
     334:	00023840 	sll	$7,$2,0x1
     338:	000210c0 	sll	$2,$2,0x3
     33c:	00e21021 	addu	$2,$7,$2
     340:	00821023 	subu	$2,$4,$2
     344:	10400031 	beqz	$2,40c <mylib_display_dec+0x194>
     348:	24120007 	li	$18,7
     34c:	104a0031 	beq	$2,$10,414 <mylib_display_dec+0x19c>
     350:	00000000 	nop
     354:	104c0031 	beq	$2,$12,41c <mylib_display_dec+0x1a4>
     358:	00000000 	nop
     35c:	104d0031 	beq	$2,$13,424 <mylib_display_dec+0x1ac>
     360:	00000000 	nop
     364:	104e0031 	beq	$2,$14,42c <mylib_display_dec+0x1b4>
     368:	00000000 	nop
     36c:	104f0033 	beq	$2,$15,43c <mylib_display_dec+0x1c4>
     370:	00000000 	nop
     374:	10510033 	beq	$2,$17,444 <mylib_display_dec+0x1cc>
     378:	00000000 	nop
     37c:	10520033 	beq	$2,$18,44c <mylib_display_dec+0x1d4>
     380:	00000000 	nop
     384:	38420008 	xori	$2,$2,0x8
     388:	0002102b 	sltu	$2,$0,$2
     38c:	24420038 	addiu	$2,$2,56
     390:	00860018 	mult	$4,$6
     394:	ac620000 	sw	$2,0($3)
     398:	25100001 	addiu	$16,$8,1
     39c:	00002010 	mfhi	$4
     3a0:	00042083 	sra	$4,$4,0x2
     3a4:	00852023 	subu	$4,$4,$5
     3a8:	1480000d 	bnez	$4,3e0 <mylib_display_dec+0x168>
     3ac:	24630004 	addiu	$3,$3,4
     3b0:	11600005 	beqz	$11,3c8 <mylib_display_dec+0x150>
     3b4:	00101080 	sll	$2,$16,0x2
     3b8:	01221021 	addu	$2,$9,$2
     3bc:	2403002d 	li	$3,45
     3c0:	ac430000 	sw	$3,0($2)
     3c4:	25100002 	addiu	$16,$8,2
     3c8:	2610ffff 	addiu	$16,$16,-1
     3cc:	00101080 	sll	$2,$16,0x2
     3d0:	01221021 	addu	$2,$9,$2
     3d4:	8c440000 	lw	$4,0($2)
     3d8:	080000ab 	j	2ac <mylib_display_dec+0x34>
     3dc:	2610ffff 	addiu	$16,$16,-1
     3e0:	00860018 	mult	$4,$6
     3e4:	00042fc3 	sra	$5,$4,0x1f
     3e8:	00001010 	mfhi	$2
     3ec:	00021083 	sra	$2,$2,0x2
     3f0:	00451023 	subu	$2,$2,$5
     3f4:	00023840 	sll	$7,$2,0x1
     3f8:	000210c0 	sll	$2,$2,0x3
     3fc:	00e21021 	addu	$2,$7,$2
     400:	00821023 	subu	$2,$4,$2
     404:	1440ffd1 	bnez	$2,34c <mylib_display_dec+0xd4>
     408:	02004021 	move	$8,$16
     40c:	080000e4 	j	390 <mylib_display_dec+0x118>
     410:	24020030 	li	$2,48
     414:	080000e4 	j	390 <mylib_display_dec+0x118>
     418:	24020031 	li	$2,49
     41c:	080000e4 	j	390 <mylib_display_dec+0x118>
     420:	24020032 	li	$2,50
     424:	080000e4 	j	390 <mylib_display_dec+0x118>
     428:	24020033 	li	$2,51
     42c:	080000e4 	j	390 <mylib_display_dec+0x118>
     430:	24020034 	li	$2,52
     434:	080000bd 	j	2f4 <mylib_display_dec+0x7c>
     438:	00005821 	move	$11,$0
     43c:	080000e4 	j	390 <mylib_display_dec+0x118>
     440:	24020035 	li	$2,53
     444:	080000e4 	j	390 <mylib_display_dec+0x118>
     448:	24020036 	li	$2,54
     44c:	080000e4 	j	390 <mylib_display_dec+0x118>
     450:	24020037 	li	$2,55

00000454 <mylib_display_hex>:
     454:	27bdffc0 	addiu	$29,$29,-64
     458:	27a20010 	addiu	$2,$29,16
     45c:	afb10038 	sw	$17,56($29)
     460:	afb00034 	sw	$16,52($29)
     464:	afbf003c 	sw	$31,60($29)
     468:	00408821 	move	$17,$2
     46c:	27a50030 	addiu	$5,$29,48
     470:	24060001 	li	$6,1
     474:	24070002 	li	$7,2
     478:	24080003 	li	$8,3
     47c:	24090004 	li	$9,4
     480:	240a0005 	li	$10,5
     484:	240b0006 	li	$11,6
     488:	240c0007 	li	$12,7
     48c:	240d0008 	li	$13,8
     490:	240e0009 	li	$14,9
     494:	240f000a 	li	$15,10
     498:	2410000b 	li	$16,11
     49c:	2418000c 	li	$24,12
     4a0:	2419000d 	li	$25,13
     4a4:	3083000f 	andi	$3,$4,0xf
     4a8:	1060001f 	beqz	$3,528 <mylib_display_hex+0xd4>
     4ac:	00000000 	nop
     4b0:	1066002e 	beq	$3,$6,56c <mylib_display_hex+0x118>
     4b4:	00000000 	nop
     4b8:	1067002e 	beq	$3,$7,574 <mylib_display_hex+0x120>
     4bc:	00000000 	nop
     4c0:	1068002e 	beq	$3,$8,57c <mylib_display_hex+0x128>
     4c4:	00000000 	nop
     4c8:	1069002e 	beq	$3,$9,584 <mylib_display_hex+0x130>
     4cc:	00000000 	nop
     4d0:	106a002e 	beq	$3,$10,58c <mylib_display_hex+0x138>
     4d4:	00000000 	nop
     4d8:	106b002e 	beq	$3,$11,594 <mylib_display_hex+0x140>
     4dc:	00000000 	nop
     4e0:	106c002e 	beq	$3,$12,59c <mylib_display_hex+0x148>
     4e4:	00000000 	nop
     4e8:	106d0030 	beq	$3,$13,5ac <mylib_display_hex+0x158>
     4ec:	00000000 	nop
     4f0:	106e0030 	beq	$3,$14,5b4 <mylib_display_hex+0x160>
     4f4:	00000000 	nop
     4f8:	106f002a 	beq	$3,$15,5a4 <mylib_display_hex+0x150>
     4fc:	00000000 	nop
     500:	1070002e 	beq	$3,$16,5bc <mylib_display_hex+0x168>
     504:	00000000 	nop
     508:	1078002e 	beq	$3,$24,5c4 <mylib_display_hex+0x170>
     50c:	00000000 	nop
     510:	1079002e 	beq	$3,$25,5cc <mylib_display_hex+0x178>
     514:	00000000 	nop
     518:	3863000e 	xori	$3,$3,0xe
     51c:	0003182b 	sltu	$3,$0,$3
     520:	0800014b 	j	52c <mylib_display_hex+0xd8>
     524:	24630065 	addiu	$3,$3,101
     528:	24030030 	li	$3,48
     52c:	ac430000 	sw	$3,0($2)
     530:	24420004 	addiu	$2,$2,4
     534:	1445ffdb 	bne	$2,$5,4a4 <mylib_display_hex+0x50>
     538:	00042103 	sra	$4,$4,0x4
     53c:	27b0002c 	addiu	$16,$29,44
     540:	2631fffc 	addiu	$17,$17,-4
     544:	8e040000 	lw	$4,0($16)
     548:	0c000080 	jal	200 <output_buffer_put>
     54c:	2610fffc 	addiu	$16,$16,-4
     550:	1611fffc 	bne	$16,$17,544 <mylib_display_hex+0xf0>
     554:	00000000 	nop
     558:	8fbf003c 	lw	$31,60($29)
     55c:	8fb10038 	lw	$17,56($29)
     560:	8fb00034 	lw	$16,52($29)
     564:	03e00008 	jr	$31
     568:	27bd0040 	addiu	$29,$29,64
     56c:	0800014b 	j	52c <mylib_display_hex+0xd8>
     570:	24030031 	li	$3,49
     574:	0800014b 	j	52c <mylib_display_hex+0xd8>
     578:	24030032 	li	$3,50
     57c:	0800014b 	j	52c <mylib_display_hex+0xd8>
     580:	24030033 	li	$3,51
     584:	0800014b 	j	52c <mylib_display_hex+0xd8>
     588:	24030034 	li	$3,52
     58c:	0800014b 	j	52c <mylib_display_hex+0xd8>
     590:	24030035 	li	$3,53
     594:	0800014b 	j	52c <mylib_display_hex+0xd8>
     598:	24030036 	li	$3,54
     59c:	0800014b 	j	52c <mylib_display_hex+0xd8>
     5a0:	24030037 	li	$3,55
     5a4:	0800014b 	j	52c <mylib_display_hex+0xd8>
     5a8:	24030061 	li	$3,97
     5ac:	0800014b 	j	52c <mylib_display_hex+0xd8>
     5b0:	24030038 	li	$3,56
     5b4:	0800014b 	j	52c <mylib_display_hex+0xd8>
     5b8:	24030039 	li	$3,57
     5bc:	0800014b 	j	52c <mylib_display_hex+0xd8>
     5c0:	24030062 	li	$3,98
     5c4:	0800014b 	j	52c <mylib_display_hex+0xd8>
     5c8:	24030063 	li	$3,99
     5cc:	0800014b 	j	52c <mylib_display_hex+0xd8>
     5d0:	24030064 	li	$3,100

000005d4 <mylib_display_char>:
     5d4:	08000080 	j	200 <output_buffer_put>
     5d8:	00000000 	nop

000005dc <mylib_display_newline>:
     5dc:	27bdffe8 	addiu	$29,$29,-24
     5e0:	afbf0014 	sw	$31,20($29)
     5e4:	0c000080 	jal	200 <output_buffer_put>
     5e8:	2404000a 	li	$4,10
     5ec:	8fbf0014 	lw	$31,20($29)
     5f0:	2404000d 	li	$4,13
     5f4:	08000080 	j	200 <output_buffer_put>
     5f8:	27bd0018 	addiu	$29,$29,24

000005fc <mylib_flush>:
     5fc:	3c030005 	lui	$3,0x5
     600:	8f878410 	lw	$7,-31728($28)
     604:	24630000 	addiu	$3,$3,0
     608:	24040001 	li	$4,1
     60c:	00602821 	move	$5,$3
     610:	00e03021 	move	$6,$7
     614:	24020fa4 	li	$2,4004
     618:	0000000c 	syscall
     61c:	00401821 	move	$3,$2
     620:	03e00008 	jr	$31
     624:	af808410 	sw	$0,-31728($28)

00000628 <mylib_finalize>:
     628:	27bdffe8 	addiu	$29,$29,-24
     62c:	afbf0014 	sw	$31,20($29)
     630:	0c000080 	jal	200 <output_buffer_put>
     634:	2404000a 	li	$4,10
     638:	0c000080 	jal	200 <output_buffer_put>
     63c:	2404000d 	li	$4,13
     640:	0c000080 	jal	200 <output_buffer_put>
     644:	24040045 	li	$4,69
     648:	0c000080 	jal	200 <output_buffer_put>
     64c:	2404004e 	li	$4,78
     650:	0c000080 	jal	200 <output_buffer_put>
     654:	24040044 	li	$4,68
     658:	0c000080 	jal	200 <output_buffer_put>
     65c:	2404000a 	li	$4,10
     660:	0c000080 	jal	200 <output_buffer_put>
     664:	2404000d 	li	$4,13
     668:	3c030005 	lui	$3,0x5
     66c:	8f878410 	lw	$7,-31728($28)
     670:	24630000 	addiu	$3,$3,0
     674:	24040001 	li	$4,1
     678:	00602821 	move	$5,$3
     67c:	00e03021 	move	$6,$7
     680:	24020fa4 	li	$2,4004
     684:	0000000c 	syscall
     688:	00401821 	move	$3,$2
     68c:	af808410 	sw	$0,-31728($28)
     690:	24040000 	li	$4,0
     694:	24020fa1 	li	$2,4001
     698:	0000000c 	syscall
     69c:	8fbf0014 	lw	$31,20($29)
     6a0:	00000000 	nop
     6a4:	03e00008 	jr	$31
     6a8:	27bd0018 	addiu	$29,$29,24

000006ac <simd128_load>:
     6ac:	8ca20000 	lw	$2,0($5)
     6b0:	00000000 	nop
     6b4:	ac820000 	sw	$2,0($4)
     6b8:	8ca20004 	lw	$2,4($5)
     6bc:	00000000 	nop
     6c0:	ac820004 	sw	$2,4($4)
     6c4:	8ca20008 	lw	$2,8($5)
     6c8:	00000000 	nop
     6cc:	ac820008 	sw	$2,8($4)
     6d0:	8ca2000c 	lw	$2,12($5)
     6d4:	03e00008 	jr	$31
     6d8:	ac82000c 	sw	$2,12($4)

000006dc <simd128_store>:
     6dc:	8c820000 	lw	$2,0($4)
     6e0:	00000000 	nop
     6e4:	aca20000 	sw	$2,0($5)
     6e8:	8c820004 	lw	$2,4($4)
     6ec:	00000000 	nop
     6f0:	aca20004 	sw	$2,4($5)
     6f4:	8c820008 	lw	$2,8($4)
     6f8:	00000000 	nop
     6fc:	aca20008 	sw	$2,8($5)
     700:	8c82000c 	lw	$2,12($4)
     704:	03e00008 	jr	$31
     708:	aca2000c 	sw	$2,12($5)

0000070c <simd128_shift_left_word>:
     70c:	8ca20008 	lw	$2,8($5)
     710:	00000000 	nop
     714:	ac82000c 	sw	$2,12($4)
     718:	8ca20004 	lw	$2,4($5)
     71c:	00000000 	nop
     720:	ac820008 	sw	$2,8($4)
     724:	8ca20000 	lw	$2,0($5)
     728:	ac860000 	sw	$6,0($4)
     72c:	03e00008 	jr	$31
     730:	ac820004 	sw	$2,4($4)

00000734 <simd128_shift_right_word>:
     734:	8ca20004 	lw	$2,4($5)
     738:	00000000 	nop
     73c:	ac820000 	sw	$2,0($4)
     740:	8ca20008 	lw	$2,8($5)
     744:	00000000 	nop
     748:	ac820004 	sw	$2,4($4)
     74c:	8ca2000c 	lw	$2,12($5)
     750:	ac86000c 	sw	$6,12($4)
     754:	03e00008 	jr	$31
     758:	ac820008 	sw	$2,8($4)

0000075c <simd128_shift_left_logical>:
     75c:	8ca20000 	lw	$2,0($5)
     760:	00000000 	nop
     764:	00c21004 	sllv	$2,$2,$6
     768:	ac820000 	sw	$2,0($4)
     76c:	8ca20004 	lw	$2,4($5)
     770:	00000000 	nop
     774:	00c21004 	sllv	$2,$2,$6
     778:	ac820004 	sw	$2,4($4)
     77c:	8ca20008 	lw	$2,8($5)
     780:	00000000 	nop
     784:	00c21004 	sllv	$2,$2,$6
     788:	ac820008 	sw	$2,8($4)
     78c:	8ca2000c 	lw	$2,12($5)
     790:	00000000 	nop
     794:	00c23004 	sllv	$6,$2,$6
     798:	03e00008 	jr	$31
     79c:	ac86000c 	sw	$6,12($4)

000007a0 <simd128_shift_right_logical>:
     7a0:	8ca20000 	lw	$2,0($5)
     7a4:	00000000 	nop
     7a8:	00c21006 	srlv	$2,$2,$6
     7ac:	ac820000 	sw	$2,0($4)
     7b0:	8ca20004 	lw	$2,4($5)
     7b4:	00000000 	nop
     7b8:	00c21006 	srlv	$2,$2,$6
     7bc:	ac820004 	sw	$2,4($4)
     7c0:	8ca20008 	lw	$2,8($5)
     7c4:	00000000 	nop
     7c8:	00c21006 	srlv	$2,$2,$6
     7cc:	ac820008 	sw	$2,8($4)
     7d0:	8ca2000c 	lw	$2,12($5)
     7d4:	00000000 	nop
     7d8:	00c23006 	srlv	$6,$2,$6
     7dc:	03e00008 	jr	$31
     7e0:	ac86000c 	sw	$6,12($4)

000007e4 <simd128_shift_left_arithmetic>:
     7e4:	8ca20000 	lw	$2,0($5)
     7e8:	00000000 	nop
     7ec:	00c21004 	sllv	$2,$2,$6
     7f0:	ac820000 	sw	$2,0($4)
     7f4:	8ca20004 	lw	$2,4($5)
     7f8:	00000000 	nop
     7fc:	00c21004 	sllv	$2,$2,$6
     800:	ac820004 	sw	$2,4($4)
     804:	8ca20008 	lw	$2,8($5)
     808:	00000000 	nop
     80c:	00c21004 	sllv	$2,$2,$6
     810:	ac820008 	sw	$2,8($4)
     814:	8ca2000c 	lw	$2,12($5)
     818:	00000000 	nop
     81c:	00c23004 	sllv	$6,$2,$6
     820:	03e00008 	jr	$31
     824:	ac86000c 	sw	$6,12($4)

00000828 <simd128_shift_right_arithmetic>:
     828:	8ca20000 	lw	$2,0($5)
     82c:	00000000 	nop
     830:	00c21007 	srav	$2,$2,$6
     834:	ac820000 	sw	$2,0($4)
     838:	8ca20004 	lw	$2,4($5)
     83c:	00000000 	nop
     840:	00c21007 	srav	$2,$2,$6
     844:	ac820004 	sw	$2,4($4)
     848:	8ca20008 	lw	$2,8($5)
     84c:	00000000 	nop
     850:	00c21007 	srav	$2,$2,$6
     854:	ac820008 	sw	$2,8($4)
     858:	8ca2000c 	lw	$2,12($5)
     85c:	00000000 	nop
     860:	00c23007 	srav	$6,$2,$6
     864:	03e00008 	jr	$31
     868:	ac86000c 	sw	$6,12($4)

0000086c <simd128_move>:
     86c:	8ca20000 	lw	$2,0($5)
     870:	00000000 	nop
     874:	ac820000 	sw	$2,0($4)
     878:	8ca20004 	lw	$2,4($5)
     87c:	00000000 	nop
     880:	ac820004 	sw	$2,4($4)
     884:	8ca20008 	lw	$2,8($5)
     888:	00000000 	nop
     88c:	ac820008 	sw	$2,8($4)
     890:	8ca2000c 	lw	$2,12($5)
     894:	03e00008 	jr	$31
     898:	ac82000c 	sw	$2,12($4)

0000089c <simd128_add>:
     89c:	8ca30000 	lw	$3,0($5)
     8a0:	8cc20000 	lw	$2,0($6)
     8a4:	00000000 	nop
     8a8:	00621021 	addu	$2,$3,$2
     8ac:	ac820000 	sw	$2,0($4)
     8b0:	8ca30004 	lw	$3,4($5)
     8b4:	8cc20004 	lw	$2,4($6)
     8b8:	00000000 	nop
     8bc:	00621021 	addu	$2,$3,$2
     8c0:	ac820004 	sw	$2,4($4)
     8c4:	8ca30008 	lw	$3,8($5)
     8c8:	8cc20008 	lw	$2,8($6)
     8cc:	00000000 	nop
     8d0:	00621021 	addu	$2,$3,$2
     8d4:	ac820008 	sw	$2,8($4)
     8d8:	8ca3000c 	lw	$3,12($5)
     8dc:	8cc2000c 	lw	$2,12($6)
     8e0:	00000000 	nop
     8e4:	00621021 	addu	$2,$3,$2
     8e8:	03e00008 	jr	$31
     8ec:	ac82000c 	sw	$2,12($4)

000008f0 <simd128_add_scalar>:
     8f0:	8ca20000 	lw	$2,0($5)
     8f4:	00000000 	nop
     8f8:	00c21021 	addu	$2,$6,$2
     8fc:	ac820000 	sw	$2,0($4)
     900:	8ca20004 	lw	$2,4($5)
     904:	00000000 	nop
     908:	00c21021 	addu	$2,$6,$2
     90c:	ac820004 	sw	$2,4($4)
     910:	8ca20008 	lw	$2,8($5)
     914:	00000000 	nop
     918:	00c21021 	addu	$2,$6,$2
     91c:	ac820008 	sw	$2,8($4)
     920:	8ca2000c 	lw	$2,12($5)
     924:	00000000 	nop
     928:	00c23021 	addu	$6,$6,$2
     92c:	03e00008 	jr	$31
     930:	ac86000c 	sw	$6,12($4)

00000934 <simd128_sub>:
     934:	8ca30000 	lw	$3,0($5)
     938:	8cc20000 	lw	$2,0($6)
     93c:	00000000 	nop
     940:	00621023 	subu	$2,$3,$2
     944:	ac820000 	sw	$2,0($4)
     948:	8ca30004 	lw	$3,4($5)
     94c:	8cc20004 	lw	$2,4($6)
     950:	00000000 	nop
     954:	00621023 	subu	$2,$3,$2
     958:	ac820004 	sw	$2,4($4)
     95c:	8ca30008 	lw	$3,8($5)
     960:	8cc20008 	lw	$2,8($6)
     964:	00000000 	nop
     968:	00621023 	subu	$2,$3,$2
     96c:	ac820008 	sw	$2,8($4)
     970:	8ca3000c 	lw	$3,12($5)
     974:	8cc2000c 	lw	$2,12($6)
     978:	00000000 	nop
     97c:	00621023 	subu	$2,$3,$2
     980:	03e00008 	jr	$31
     984:	ac82000c 	sw	$2,12($4)

00000988 <simd128_sub_scalar>:
     988:	8ca20000 	lw	$2,0($5)
     98c:	00000000 	nop
     990:	00461023 	subu	$2,$2,$6
     994:	ac820000 	sw	$2,0($4)
     998:	8ca20004 	lw	$2,4($5)
     99c:	00000000 	nop
     9a0:	00461023 	subu	$2,$2,$6
     9a4:	ac820004 	sw	$2,4($4)
     9a8:	8ca20008 	lw	$2,8($5)
     9ac:	00000000 	nop
     9b0:	00461023 	subu	$2,$2,$6
     9b4:	ac820008 	sw	$2,8($4)
     9b8:	8ca2000c 	lw	$2,12($5)
     9bc:	00000000 	nop
     9c0:	00463023 	subu	$6,$2,$6
     9c4:	03e00008 	jr	$31
     9c8:	ac86000c 	sw	$6,12($4)

000009cc <simd128_mult>:
     9cc:	8cc30000 	lw	$3,0($6)
     9d0:	8ce20000 	lw	$2,0($7)
     9d4:	8ccb0004 	lw	$11,4($6)
     9d8:	8cea0004 	lw	$10,4($7)
     9dc:	00620018 	mult	$3,$2
     9e0:	8cc90008 	lw	$9,8($6)
     9e4:	8ce80008 	lw	$8,8($7)
     9e8:	8ccc000c 	lw	$12,12($6)
     9ec:	8ce6000c 	lw	$6,12($7)
     9f0:	00001012 	mflo	$2
     9f4:	00001810 	mfhi	$3
     9f8:	ac830000 	sw	$3,0($4)
     9fc:	00000000 	nop
     a00:	016a0018 	mult	$11,$10
     a04:	00005012 	mflo	$10
     a08:	00005810 	mfhi	$11
     a0c:	ac8b0004 	sw	$11,4($4)
     a10:	00000000 	nop
     a14:	01280018 	mult	$9,$8
     a18:	00004012 	mflo	$8
     a1c:	00004810 	mfhi	$9
     a20:	ac890008 	sw	$9,8($4)
     a24:	00000000 	nop
     a28:	01860018 	mult	$12,$6
     a2c:	00003012 	mflo	$6
     a30:	00003810 	mfhi	$7
     a34:	ac87000c 	sw	$7,12($4)
     a38:	aca20000 	sw	$2,0($5)
     a3c:	acaa0004 	sw	$10,4($5)
     a40:	aca80008 	sw	$8,8($5)
     a44:	03e00008 	jr	$31
     a48:	aca6000c 	sw	$6,12($5)

00000a4c <simd128_mult_scalar>:
     a4c:	8cc20000 	lw	$2,0($6)
     a50:	8cca0004 	lw	$10,4($6)
     a54:	8cc80008 	lw	$8,8($6)
     a58:	00470018 	mult	$2,$7
     a5c:	8cc6000c 	lw	$6,12($6)
     a60:	00001012 	mflo	$2
     a64:	00001810 	mfhi	$3
     a68:	ac830000 	sw	$3,0($4)
     a6c:	00000000 	nop
     a70:	00ea0018 	mult	$7,$10
     a74:	00005012 	mflo	$10
     a78:	00005810 	mfhi	$11
     a7c:	ac8b0004 	sw	$11,4($4)
     a80:	00000000 	nop
     a84:	00e80018 	mult	$7,$8
     a88:	00004012 	mflo	$8
     a8c:	00004810 	mfhi	$9
     a90:	ac890008 	sw	$9,8($4)
     a94:	00000000 	nop
     a98:	00e60018 	mult	$7,$6
     a9c:	00003012 	mflo	$6
     aa0:	00003810 	mfhi	$7
     aa4:	ac87000c 	sw	$7,12($4)
     aa8:	aca20000 	sw	$2,0($5)
     aac:	acaa0004 	sw	$10,4($5)
     ab0:	aca80008 	sw	$8,8($5)
     ab4:	03e00008 	jr	$31
     ab8:	aca6000c 	sw	$6,12($5)

00000abc <simd128_and>:
     abc:	8ca30000 	lw	$3,0($5)
     ac0:	8cc20000 	lw	$2,0($6)
     ac4:	00000000 	nop
     ac8:	00621024 	and	$2,$3,$2
     acc:	ac820000 	sw	$2,0($4)
     ad0:	8ca30004 	lw	$3,4($5)
     ad4:	8cc20004 	lw	$2,4($6)
     ad8:	00000000 	nop
     adc:	00621024 	and	$2,$3,$2
     ae0:	ac820004 	sw	$2,4($4)
     ae4:	8ca30008 	lw	$3,8($5)
     ae8:	8cc20008 	lw	$2,8($6)
     aec:	00000000 	nop
     af0:	00621024 	and	$2,$3,$2
     af4:	ac820008 	sw	$2,8($4)
     af8:	8ca3000c 	lw	$3,12($5)
     afc:	8cc2000c 	lw	$2,12($6)
     b00:	00000000 	nop
     b04:	00621024 	and	$2,$3,$2
     b08:	03e00008 	jr	$31
     b0c:	ac82000c 	sw	$2,12($4)

00000b10 <simd128_xor>:
     b10:	8ca30000 	lw	$3,0($5)
     b14:	8cc20000 	lw	$2,0($6)
     b18:	00000000 	nop
     b1c:	00621026 	xor	$2,$3,$2
     b20:	ac820000 	sw	$2,0($4)
     b24:	8ca30004 	lw	$3,4($5)
     b28:	8cc20004 	lw	$2,4($6)
     b2c:	00000000 	nop
     b30:	00621026 	xor	$2,$3,$2
     b34:	ac820004 	sw	$2,4($4)
     b38:	8ca30008 	lw	$3,8($5)
     b3c:	8cc20008 	lw	$2,8($6)
     b40:	00000000 	nop
     b44:	00621026 	xor	$2,$3,$2
     b48:	ac820008 	sw	$2,8($4)
     b4c:	8ca3000c 	lw	$3,12($5)
     b50:	8cc2000c 	lw	$2,12($6)
     b54:	00000000 	nop
     b58:	00621026 	xor	$2,$3,$2
     b5c:	03e00008 	jr	$31
     b60:	ac82000c 	sw	$2,12($4)

00000b64 <simd128_or>:
     b64:	8ca30000 	lw	$3,0($5)
     b68:	8cc20000 	lw	$2,0($6)
     b6c:	00000000 	nop
     b70:	00621025 	or	$2,$3,$2
     b74:	ac820000 	sw	$2,0($4)
     b78:	8ca30004 	lw	$3,4($5)
     b7c:	8cc20004 	lw	$2,4($6)
     b80:	00000000 	nop
     b84:	00621025 	or	$2,$3,$2
     b88:	ac820004 	sw	$2,4($4)
     b8c:	8ca30008 	lw	$3,8($5)
     b90:	8cc20008 	lw	$2,8($6)
     b94:	00000000 	nop
     b98:	00621025 	or	$2,$3,$2
     b9c:	ac820008 	sw	$2,8($4)
     ba0:	8ca3000c 	lw	$3,12($5)
     ba4:	8cc2000c 	lw	$2,12($6)
     ba8:	00000000 	nop
     bac:	00621025 	or	$2,$3,$2
     bb0:	03e00008 	jr	$31
     bb4:	ac82000c 	sw	$2,12($4)

00000bb8 <simd128_nor>:
     bb8:	8ca30000 	lw	$3,0($5)
     bbc:	8cc20000 	lw	$2,0($6)
     bc0:	00000000 	nop
     bc4:	00621025 	or	$2,$3,$2
     bc8:	00021027 	nor	$2,$0,$2
     bcc:	ac820000 	sw	$2,0($4)
     bd0:	8ca30004 	lw	$3,4($5)
     bd4:	8cc20004 	lw	$2,4($6)
     bd8:	00000000 	nop
     bdc:	00621025 	or	$2,$3,$2
     be0:	00021027 	nor	$2,$0,$2
     be4:	ac820004 	sw	$2,4($4)
     be8:	8ca30008 	lw	$3,8($5)
     bec:	8cc20008 	lw	$2,8($6)
     bf0:	00000000 	nop
     bf4:	00621025 	or	$2,$3,$2
     bf8:	00021027 	nor	$2,$0,$2
     bfc:	ac820008 	sw	$2,8($4)
     c00:	8ca3000c 	lw	$3,12($5)
     c04:	8cc2000c 	lw	$2,12($6)
     c08:	00000000 	nop
     c0c:	00621025 	or	$2,$3,$2
     c10:	00021027 	nor	$2,$0,$2
     c14:	03e00008 	jr	$31
     c18:	ac82000c 	sw	$2,12($4)

00000c1c <main>:
     c1c:	3c030001 	lui	$3,0x1
     c20:	24630000 	addiu	$3,$3,0
     c24:	3c020004 	lui	$2,0x4
     c28:	00431021 	addu	$2,$2,$3
     c2c:	8c45fff8 	lw	$5,-8($2)
     c30:	af838420 	sw	$3,-31712($28)
     c34:	3c030005 	lui	$3,0x5
     c38:	2463fff8 	addiu	$3,$3,-8
     c3c:	af838428 	sw	$3,-31704($28)
     c40:	3c030005 	lui	$3,0x5
     c44:	27bdfed8 	addiu	$29,$29,-296
     c48:	2463fffc 	addiu	$3,$3,-4
     c4c:	24040073 	li	$4,115
     c50:	afbf0124 	sw	$31,292($29)
     c54:	afa50094 	sw	$5,148($29)
     c58:	af838424 	sw	$3,-31708($28)
     c5c:	afb20108 	sw	$18,264($29)
     c60:	afb10104 	sw	$17,260($29)
     c64:	8c52fffc 	lw	$18,-4($2)
     c68:	afbe0120 	sw	$30,288($29)
     c6c:	afb7011c 	sw	$23,284($29)
     c70:	afb60118 	sw	$22,280($29)
     c74:	afb50114 	sw	$21,276($29)
     c78:	afb40110 	sw	$20,272($29)
     c7c:	afb3010c 	sw	$19,268($29)
     c80:	0c000080 	jal	200 <output_buffer_put>
     c84:	afb00100 	sw	$16,256($29)
     c88:	0c000080 	jal	200 <output_buffer_put>
     c8c:	24040074 	li	$4,116
     c90:	0c000080 	jal	200 <output_buffer_put>
     c94:	24040065 	li	$4,101
     c98:	0c000080 	jal	200 <output_buffer_put>
     c9c:	2404006e 	li	$4,110
     ca0:	0c000080 	jal	200 <output_buffer_put>
     ca4:	24040063 	li	$4,99
     ca8:	0c000080 	jal	200 <output_buffer_put>
     cac:	24040069 	li	$4,105
     cb0:	0c000080 	jal	200 <output_buffer_put>
     cb4:	2404006c 	li	$4,108
     cb8:	0c000080 	jal	200 <output_buffer_put>
     cbc:	24040020 	li	$4,32
     cc0:	0c000080 	jal	200 <output_buffer_put>
     cc4:	2404006e 	li	$4,110
     cc8:	0c000080 	jal	200 <output_buffer_put>
     ccc:	2404003d 	li	$4,61
     cd0:	8fa40094 	lw	$4,148($29)
     cd4:	0c00009e 	jal	278 <mylib_display_dec>
     cd8:	00000000 	nop
     cdc:	0c000080 	jal	200 <output_buffer_put>
     ce0:	24040020 	li	$4,32
     ce4:	0c000080 	jal	200 <output_buffer_put>
     ce8:	24040069 	li	$4,105
     cec:	0c000080 	jal	200 <output_buffer_put>
     cf0:	2404003d 	li	$4,61
     cf4:	0c00009e 	jal	278 <mylib_display_dec>
     cf8:	02402021 	move	$4,$18
     cfc:	0c000080 	jal	200 <output_buffer_put>
     d00:	2404000a 	li	$4,10
     d04:	0c000080 	jal	200 <output_buffer_put>
     d08:	2404000d 	li	$4,13
     d0c:	8fa20094 	lw	$2,148($29)
     d10:	00000000 	nop
     d14:	00420018 	mult	$2,$2
     d18:	00008812 	mflo	$17
     d1c:	1a2003e1 	blez	$17,1ca4 <main+0x1088>
     d20:	3c02005d 	lui	$2,0x5d
     d24:	24420420 	addiu	$2,$2,1056
     d28:	8f898420 	lw	$9,-31712($28)
     d2c:	afa20028 	sw	$2,40($29)
     d30:	00401821 	move	$3,$2
     d34:	3c020005 	lui	$2,0x5
     d38:	24420420 	addiu	$2,$2,1056
     d3c:	00004021 	move	$8,$0
     d40:	00003821 	move	$7,$0
     d44:	00082880 	sll	$5,$8,0x2
     d48:	24a40010 	addiu	$4,$5,16
     d4c:	01242021 	addu	$4,$9,$4
     d50:	01252821 	addu	$5,$9,$5
     d54:	8caf0000 	lw	$15,0($5)
     d58:	8cae0004 	lw	$14,4($5)
     d5c:	8cad0008 	lw	$13,8($5)
     d60:	8cac000c 	lw	$12,12($5)
     d64:	8c8b0000 	lw	$11,0($4)
     d68:	8c8a0004 	lw	$10,4($4)
     d6c:	8c860008 	lw	$6,8($4)
     d70:	8c85000c 	lw	$5,12($4)
     d74:	24e70008 	addiu	$7,$7,8
     d78:	25080008 	addiu	$8,$8,8
     d7c:	00f1202a 	slt	$4,$7,$17
     d80:	ac6f0000 	sw	$15,0($3)
     d84:	ac6e0004 	sw	$14,4($3)
     d88:	ac6d0008 	sw	$13,8($3)
     d8c:	ac6c000c 	sw	$12,12($3)
     d90:	ac6b0010 	sw	$11,16($3)
     d94:	ac6a0014 	sw	$10,20($3)
     d98:	ac660018 	sw	$6,24($3)
     d9c:	ac65001c 	sw	$5,28($3)
     da0:	ac400000 	sw	$0,0($2)
     da4:	ac400004 	sw	$0,4($2)
     da8:	ac400008 	sw	$0,8($2)
     dac:	ac40000c 	sw	$0,12($2)
     db0:	ac400010 	sw	$0,16($2)
     db4:	ac400014 	sw	$0,20($2)
     db8:	ac400018 	sw	$0,24($2)
     dbc:	ac40001c 	sw	$0,28($2)
     dc0:	3108ffff 	andi	$8,$8,0xffff
     dc4:	24630020 	addiu	$3,$3,32
     dc8:	1480ffde 	bnez	$4,d44 <main+0x128>
     dcc:	24420020 	addiu	$2,$2,32
     dd0:	001217c2 	srl	$2,$18,0x1f
     dd4:	00529021 	addu	$18,$2,$18
     dd8:	00129043 	sra	$18,$18,0x1
     ddc:	1a40033d 	blez	$18,1ad4 <main+0xeb8>
     de0:	afb200c4 	sw	$18,196($29)
     de4:	8fa50094 	lw	$5,148($29)
     de8:	8fa60028 	lw	$6,40($29)
     dec:	8fac0028 	lw	$12,40($29)
     df0:	000520c0 	sll	$4,$5,0x3
     df4:	24a2fff7 	addiu	$2,$5,-9
     df8:	3c070005 	lui	$7,0x5
     dfc:	24e70420 	addiu	$7,$7,1056
     e00:	00021082 	srl	$2,$2,0x2
     e04:	00c43021 	addu	$6,$6,$4
     e08:	24a30001 	addiu	$3,$5,1
     e0c:	8fab0094 	lw	$11,148($29)
     e10:	afa600c0 	sw	$6,192($29)
     e14:	00031880 	sll	$3,$3,0x2
     e18:	00e42021 	addu	$4,$7,$4
     e1c:	24460003 	addiu	$6,$2,3
     e20:	24450002 	addiu	$5,$2,2
     e24:	afa400bc 	sw	$4,188($29)
     e28:	2469fffc 	addiu	$9,$3,-4
     e2c:	00e35021 	addu	$10,$7,$3
     e30:	2464000c 	addiu	$4,$3,12
     e34:	00063080 	sll	$6,$6,0x2
     e38:	01831821 	addu	$3,$12,$3
     e3c:	00052880 	sll	$5,$5,0x2
     e40:	afaa00ec 	sw	$10,236($29)
     e44:	00e98821 	addu	$17,$7,$9
     e48:	afa300e0 	sw	$3,224($29)
     e4c:	01848021 	addu	$16,$12,$4
     e50:	8fb600c0 	lw	$22,192($29)
     e54:	00e42021 	addu	$4,$7,$4
     e58:	8fbe00c0 	lw	$30,192($29)
     e5c:	8fa300c0 	lw	$3,192($29)
     e60:	afa60048 	sw	$6,72($29)
     e64:	afa50098 	sw	$5,152($29)
     e68:	8fa600bc 	lw	$6,188($29)
     e6c:	8fa500bc 	lw	$5,188($29)
     e70:	8fa700bc 	lw	$7,188($29)
     e74:	afa90050 	sw	$9,80($29)
     e78:	2562fffc 	addiu	$2,$11,-4
     e7c:	01896821 	addu	$13,$12,$9
     e80:	afa400b4 	sw	$4,180($29)
     e84:	29690003 	slti	$9,$11,3
     e88:	000b2040 	sll	$4,$11,0x1
     e8c:	256affff 	addiu	$10,$11,-1
     e90:	8fab00ec 	lw	$11,236($29)
     e94:	28420005 	slti	$2,$2,5
     e98:	afa200a0 	sw	$2,160($29)
     e9c:	26d60004 	addiu	$22,$22,4
     ea0:	27de0008 	addiu	$30,$30,8
     ea4:	2463000c 	addiu	$3,$3,12
     ea8:	24a50004 	addiu	$5,$5,4
     eac:	24c60008 	addiu	$6,$6,8
     eb0:	24e7000c 	addiu	$7,$7,12
     eb4:	3c0238e3 	lui	$2,0x38e3
     eb8:	afad00a8 	sw	$13,168($29)
     ebc:	afb000ac 	sw	$16,172($29)
     ec0:	afb100b0 	sw	$17,176($29)
     ec4:	afb600d0 	sw	$22,208($29)
     ec8:	afbe00cc 	sw	$30,204($29)
     ecc:	afa300c8 	sw	$3,200($29)
     ed0:	afa400a4 	sw	$4,164($29)
     ed4:	afa500dc 	sw	$5,220($29)
     ed8:	afa600d8 	sw	$6,216($29)
     edc:	afa700d4 	sw	$7,212($29)
     ee0:	afa000b8 	sw	$0,184($29)
     ee4:	afa900e4 	sw	$9,228($29)
     ee8:	afaa009c 	sw	$10,156($29)
     eec:	344f8e39 	ori	$15,$2,0x8e39
     ef0:	afab00e8 	sw	$11,232($29)
     ef4:	8fa900e4 	lw	$9,228($29)
     ef8:	00000000 	nop
     efc:	152002e8 	bnez	$9,1aa0 <main+0xe84>
     f00:	24050001 	li	$5,1
     f04:	8faa00a8 	lw	$10,168($29)
     f08:	8fa400ac 	lw	$4,172($29)
     f0c:	8fac0094 	lw	$12,148($29)
     f10:	8fad0050 	lw	$13,80($29)
     f14:	8fbe00c0 	lw	$30,192($29)
     f18:	8fb100cc 	lw	$17,204($29)
     f1c:	8d420004 	lw	$2,4($10)
     f20:	8d4b0008 	lw	$11,8($10)
     f24:	8d430000 	lw	$3,0($10)
     f28:	8fb000c8 	lw	$16,200($29)
     f2c:	8d5f000c 	lw	$31,12($10)
     f30:	afac0054 	sw	$12,84($29)
     f34:	afad0058 	sw	$13,88($29)
     f38:	8fb600d0 	lw	$22,208($29)
     f3c:	afbe0060 	sw	$30,96($29)
     f40:	8c8d000c 	lw	$13,12($4)
     f44:	8c8c0008 	lw	$12,8($4)
     f48:	8c9e0000 	lw	$30,0($4)
     f4c:	afb10068 	sw	$17,104($29)
     f50:	8c910004 	lw	$17,4($4)
     f54:	00621821 	addu	$3,$3,$2
     f58:	004b1021 	addu	$2,$2,$11
     f5c:	afb00064 	sw	$16,100($29)
     f60:	03e0c021 	move	$24,$31
     f64:	afab004c 	sw	$11,76($29)
     f68:	afb6006c 	sw	$22,108($29)
     f6c:	afa00074 	sw	$0,116($29)
     f70:	afa0007c 	sw	$0,124($29)
     f74:	afa50078 	sw	$5,120($29)
     f78:	afa30080 	sw	$3,128($29)
     f7c:	afa20084 	sw	$2,132($29)
     f80:	01808021 	move	$16,$12
     f84:	01a09021 	move	$18,$13
     f88:	03c0f821 	move	$31,$30
     f8c:	8fac0028 	lw	$12,40($29)
     f90:	8fad007c 	lw	$13,124($29)
     f94:	8faa0068 	lw	$10,104($29)
     f98:	8fa2006c 	lw	$2,108($29)
     f9c:	018d1821 	addu	$3,$12,$13
     fa0:	8c640004 	lw	$4,4($3)
     fa4:	8fad0060 	lw	$13,96($29)
     fa8:	8c660000 	lw	$6,0($3)
     fac:	8d4a0000 	lw	$10,0($10)
     fb0:	8c650008 	lw	$5,8($3)
     fb4:	8c79000c 	lw	$25,12($3)
     fb8:	8fbe004c 	lw	$30,76($29)
     fbc:	8c470000 	lw	$7,0($2)
     fc0:	afaa004c 	sw	$10,76($29)
     fc4:	8da80000 	lw	$8,0($13)
     fc8:	00863021 	addu	$6,$4,$6
     fcc:	00b91021 	addu	$2,$5,$25
     fd0:	00852021 	addu	$4,$4,$5
     fd4:	00a62821 	addu	$5,$5,$6
     fd8:	8fa6004c 	lw	$6,76($29)
     fdc:	8fb60080 	lw	$22,128($29)
     fe0:	8fac0064 	lw	$12,100($29)
     fe4:	01074021 	addu	$8,$8,$7
     fe8:	afa80080 	sw	$8,128($29)
     fec:	00e63821 	addu	$7,$7,$6
     ff0:	8d8c0000 	lw	$12,0($12)
     ff4:	02de5821 	addu	$11,$22,$30
     ff8:	03d84821 	addu	$9,$30,$24
     ffc:	8fbe0084 	lw	$30,132($29)
    1000:	afa70084 	sw	$7,132($29)
    1004:	8fa70080 	lw	$7,128($29)
    1008:	00cc4021 	addu	$8,$6,$12
    100c:	00ab2821 	addu	$5,$5,$11
    1010:	00c73021 	addu	$6,$6,$7
    1014:	00c53021 	addu	$6,$6,$5
    1018:	00cf0018 	mult	$6,$15
    101c:	8fab0084 	lw	$11,132($29)
    1020:	03d85021 	addu	$10,$30,$24
    1024:	03242021 	addu	$4,$25,$4
    1028:	018b3821 	addu	$7,$12,$11
    102c:	008a2021 	addu	$4,$4,$10
    1030:	00e42021 	addu	$4,$7,$4
    1034:	8c730010 	lw	$19,16($3)
    1038:	8db60010 	lw	$22,16($13)
    103c:	013f4821 	addu	$9,$9,$31
    1040:	02621021 	addu	$2,$19,$2
    1044:	00491021 	addu	$2,$2,$9
    1048:	8fa90058 	lw	$9,88($29)
    104c:	02c84021 	addu	$8,$22,$8
    1050:	3c050005 	lui	$5,0x5
    1054:	01021021 	addu	$2,$8,$2
    1058:	24a50420 	addiu	$5,$5,1056
    105c:	00a94021 	addu	$8,$5,$9
    1060:	00003810 	mfhi	$7
    1064:	afb60070 	sw	$22,112($29)
    1068:	8fb6006c 	lw	$22,108($29)
    106c:	afac005c 	sw	$12,92($29)
    1070:	008f0018 	mult	$4,$15
    1074:	8fac0078 	lw	$12,120($29)
    1078:	8ed60010 	lw	$22,16($22)
    107c:	8c6b0014 	lw	$11,20($3)
    1080:	258c0001 	addiu	$12,$12,1
    1084:	8c6a0018 	lw	$10,24($3)
    1088:	8c6d001c 	lw	$13,28($3)
    108c:	afac0078 	sw	$12,120($29)
    1090:	afb60088 	sw	$22,136($29)
    1094:	8fa30064 	lw	$3,100($29)
    1098:	8fbe0068 	lw	$30,104($29)
    109c:	8c630010 	lw	$3,16($3)
    10a0:	8fde0010 	lw	$30,16($30)
    10a4:	afa30090 	sw	$3,144($29)
    10a8:	00071843 	sra	$3,$7,0x1
    10ac:	ad030004 	sw	$3,4($8)
    10b0:	00002810 	mfhi	$5
    10b4:	afbe008c 	sw	$30,140($29)
    10b8:	00000000 	nop
    10bc:	004f0018 	mult	$2,$15
    10c0:	00051043 	sra	$2,$5,0x1
    10c4:	ad020008 	sw	$2,8($8)
    10c8:	00001810 	mfhi	$3
    10cc:	00031043 	sra	$2,$3,0x1
    10d0:	ad02000c 	sw	$2,12($8)
    10d4:	8fa200a0 	lw	$2,160($29)
    10d8:	00000000 	nop
    10dc:	144000ef 	bnez	$2,149c <main+0x880>
    10e0:	25260010 	addiu	$6,$9,16
    10e4:	8fa30074 	lw	$3,116($29)
    10e8:	8fa400a4 	lw	$4,164($29)
    10ec:	8fa50054 	lw	$5,84($29)
    10f0:	8fac0090 	lw	$12,144($29)
    10f4:	00641021 	addu	$2,$3,$4
    10f8:	00451023 	subu	$2,$2,$5
    10fc:	8fa6005c 	lw	$6,92($29)
    1100:	00021080 	sll	$2,$2,0x2
    1104:	00651823 	subu	$3,$3,$5
    1108:	00031880 	sll	$3,$3,0x2
    110c:	afa20044 	sw	$2,68($29)
    1110:	24070008 	li	$7,8
    1114:	03001021 	move	$2,$24
    1118:	02402021 	move	$4,$18
    111c:	0180c021 	move	$24,$12
    1120:	01a09021 	move	$18,$13
    1124:	afa30040 	sw	$3,64($29)
    1128:	25280020 	addiu	$8,$9,32
    112c:	8fb40070 	lw	$20,112($29)
    1130:	02c07021 	move	$14,$22
    1134:	afa70020 	sw	$7,32($29)
    1138:	afbe0010 	sw	$30,16($29)
    113c:	00c06821 	move	$13,$6
    1140:	08000455 	j	1154 <main+0x538>
    1144:	00406021 	move	$12,$2
    1148:	8fb20034 	lw	$18,52($29)
    114c:	8fa4002c 	lw	$4,44($29)
    1150:	8fb80030 	lw	$24,48($29)
    1154:	8fbe0044 	lw	$30,68($29)
    1158:	8fb60028 	lw	$22,40($29)
    115c:	8fa90040 	lw	$9,64($29)
    1160:	011e1821 	addu	$3,$8,$30
    1164:	02c31821 	addu	$3,$22,$3
    1168:	01093821 	addu	$7,$8,$9
    116c:	8c690000 	lw	$9,0($3)
    1170:	02c82821 	addu	$5,$22,$8
    1174:	8ca60000 	lw	$6,0($5)
    1178:	afa90014 	sw	$9,20($29)
    117c:	8fa90010 	lw	$9,16($29)
    1180:	0279c821 	addu	$25,$19,$25
    1184:	03ec6021 	addu	$12,$31,$12
    1188:	02c73821 	addu	$7,$22,$7
    118c:	afa6001c 	sw	$6,28($29)
    1190:	028db821 	addu	$23,$20,$13
    1194:	014b3021 	addu	$6,$10,$11
    1198:	0211b021 	addu	$22,$16,$17
    119c:	01739821 	addu	$19,$11,$19
    11a0:	023ff821 	addu	$31,$17,$31
    11a4:	032b5821 	addu	$11,$25,$11
    11a8:	01918821 	addu	$17,$12,$17
    11ac:	012e6821 	addu	$13,$9,$14
    11b0:	01715821 	addu	$11,$11,$17
    11b4:	01d4a021 	addu	$20,$14,$20
    11b8:	02ee7021 	addu	$14,$23,$14
    11bc:	01cbc821 	addu	$25,$14,$11
    11c0:	032f0018 	mult	$25,$15
    11c4:	021ff821 	addu	$31,$16,$31
    11c8:	0204a821 	addu	$21,$16,$4
    11cc:	8fb00010 	lw	$16,16($29)
    11d0:	8fac001c 	lw	$12,28($29)
    11d4:	026a9821 	addu	$19,$19,$10
    11d8:	0290a021 	addu	$20,$20,$16
    11dc:	027f9821 	addu	$19,$19,$31
    11e0:	0195a821 	addu	$21,$12,$21
    11e4:	02936021 	addu	$12,$20,$19
    11e8:	8ce20000 	lw	$2,0($7)
    11ec:	8fb10014 	lw	$17,20($29)
    11f0:	02c4b021 	addu	$22,$22,$4
    11f4:	afa20018 	sw	$2,24($29)
    11f8:	024a1021 	addu	$2,$18,$10
    11fc:	8faa0018 	lw	$10,24($29)
    1200:	00d23021 	addu	$6,$6,$18
    1204:	8cb00008 	lw	$16,8($5)
    1208:	00005810 	mfhi	$11
    120c:	00d63021 	addu	$6,$6,$22
    1210:	8cb60004 	lw	$22,4($5)
    1214:	8ca5000c 	lw	$5,12($5)
    1218:	018f0018 	mult	$12,$15
    121c:	0142f021 	addu	$30,$10,$2
    1220:	03094821 	addu	$9,$24,$9
    1224:	02294821 	addu	$9,$17,$9
    1228:	03d51021 	addu	$2,$30,$21
    122c:	01221021 	addu	$2,$9,$2
    1230:	8c750004 	lw	$21,4($3)
    1234:	afa5002c 	sw	$5,44($29)
    1238:	8c650008 	lw	$5,8($3)
    123c:	8c63000c 	lw	$3,12($3)
    1240:	01b86821 	addu	$13,$13,$24
    1244:	afa200f0 	sw	$2,240($29)
    1248:	3c020005 	lui	$2,0x5
    124c:	01a63021 	addu	$6,$13,$6
    1250:	2509fff0 	addiu	$9,$8,-16
    1254:	24420420 	addiu	$2,$2,1056
    1258:	00494821 	addu	$9,$2,$9
    125c:	afa30030 	sw	$3,48($29)
    1260:	00001012 	mflo	$2
    1264:	8fad0020 	lw	$13,32($29)
    1268:	8cf70004 	lw	$23,4($7)
    126c:	8cfe0008 	lw	$30,8($7)
    1270:	00001810 	mfhi	$3
    1274:	8ce7000c 	lw	$7,12($7)
    1278:	25ad0004 	addiu	$13,$13,4
    127c:	afa3003c 	sw	$3,60($29)
    1280:	00cf0018 	mult	$6,$15
    1284:	000b1843 	sra	$3,$11,0x1
    1288:	ad230000 	sw	$3,0($9)
    128c:	afad0020 	sw	$13,32($29)
    1290:	afa70034 	sw	$7,52($29)
    1294:	afa20038 	sw	$2,56($29)
    1298:	afb00024 	sw	$16,36($29)
    129c:	8fb30018 	lw	$19,24($29)
    12a0:	8fbf001c 	lw	$31,28($29)
    12a4:	8fb40014 	lw	$20,20($29)
    12a8:	afa50010 	sw	$5,16($29)
    12ac:	8fa600f0 	lw	$6,240($29)
    12b0:	25080010 	addiu	$8,$8,16
    12b4:	0240c821 	move	$25,$18
    12b8:	00806021 	move	$12,$4
    12bc:	03006821 	move	$13,$24
    12c0:	02e05821 	move	$11,$23
    12c4:	03c05021 	move	$10,$30
    12c8:	00001012 	mflo	$2
    12cc:	02c08821 	move	$17,$22
    12d0:	afa200f8 	sw	$2,248($29)
    12d4:	8fa2003c 	lw	$2,60($29)
    12d8:	00001810 	mfhi	$3
    12dc:	afa300fc 	sw	$3,252($29)
    12e0:	8fa700fc 	lw	$7,252($29)
    12e4:	00cf0018 	mult	$6,$15
    12e8:	00021843 	sra	$3,$2,0x1
    12ec:	ad230004 	sw	$3,4($9)
    12f0:	00071043 	sra	$2,$7,0x1
    12f4:	ad220008 	sw	$2,8($9)
    12f8:	00001810 	mfhi	$3
    12fc:	00031043 	sra	$2,$3,0x1
    1300:	ad22000c 	sw	$2,12($9)
    1304:	8fa90020 	lw	$9,32($29)
    1308:	8fa20048 	lw	$2,72($29)
    130c:	00000000 	nop
    1310:	1522ff8d 	bne	$9,$2,1148 <main+0x52c>
    1314:	02a07021 	move	$14,$21
    1318:	02406821 	move	$13,$18
    131c:	8fa30054 	lw	$3,84($29)
    1320:	00809021 	move	$18,$4
    1324:	8fa40098 	lw	$4,152($29)
    1328:	03006021 	move	$12,$24
    132c:	00643021 	addu	$6,$3,$4
    1330:	00063080 	sll	$6,$6,0x2
    1334:	8faa0018 	lw	$10,24($29)
    1338:	8fab001c 	lw	$11,28($29)
    133c:	8fb00014 	lw	$16,20($29)
    1340:	014d4821 	addu	$9,$10,$13
    1344:	8fad0024 	lw	$13,36($29)
    1348:	01723821 	addu	$7,$11,$18
    134c:	03d71821 	addu	$3,$30,$23
    1350:	02ea4021 	addu	$8,$23,$10
    1354:	02cb9021 	addu	$18,$22,$11
    1358:	01b61021 	addu	$2,$13,$22
    135c:	020c6021 	addu	$12,$16,$12
    1360:	00f6b021 	addu	$22,$7,$22
    1364:	0137b821 	addu	$23,$9,$23
    1368:	02f6b821 	addu	$23,$23,$22
    136c:	01956021 	addu	$12,$12,$21
    1370:	01976021 	addu	$12,$12,$23
    1374:	018f0018 	mult	$12,$15
    1378:	011ef021 	addu	$30,$8,$30
    137c:	01b29021 	addu	$18,$13,$18
    1380:	02b08021 	addu	$16,$21,$16
    1384:	02058021 	addu	$16,$16,$5
    1388:	03d2c021 	addu	$24,$30,$18
    138c:	0218c021 	addu	$24,$16,$24
    1390:	8fb10034 	lw	$17,52($29)
    1394:	00b54821 	addu	$9,$5,$21
    1398:	8fa50030 	lw	$5,48($29)
    139c:	00715021 	addu	$10,$3,$17
    13a0:	8fa3002c 	lw	$3,44($29)
    13a4:	0125f821 	addu	$31,$9,$5
    13a8:	8fa50054 	lw	$5,84($29)
    13ac:	00431021 	addu	$2,$2,$3
    13b0:	01421821 	addu	$3,$10,$2
    13b4:	03e31821 	addu	$3,$31,$3
    13b8:	00a41021 	addu	$2,$5,$4
    13bc:	00006810 	mfhi	$13
    13c0:	24420003 	addiu	$2,$2,3
    13c4:	3c070005 	lui	$7,0x5
    13c8:	24e70420 	addiu	$7,$7,1056
    13cc:	030f0018 	mult	$24,$15
    13d0:	00021080 	sll	$2,$2,0x2
    13d4:	00e21021 	addu	$2,$7,$2
    13d8:	8c420000 	lw	$2,0($2)
    13dc:	00e63021 	addu	$6,$7,$6
    13e0:	8fa40074 	lw	$4,116($29)
    13e4:	acc2000c 	sw	$2,12($6)
    13e8:	8fa20094 	lw	$2,148($29)
    13ec:	8faa0050 	lw	$10,80($29)
    13f0:	8fa9007c 	lw	$9,124($29)
    13f4:	00a22821 	addu	$5,$5,$2
    13f8:	00822021 	addu	$4,$4,$2
    13fc:	000d1043 	sra	$2,$13,0x1
    1400:	acc20000 	sw	$2,0($6)
    1404:	8fab0060 	lw	$11,96($29)
    1408:	8fb0006c 	lw	$16,108($29)
    140c:	8fb10068 	lw	$17,104($29)
    1410:	8fb60064 	lw	$22,100($29)
    1414:	0000c810 	mfhi	$25
    1418:	8fbe0058 	lw	$30,88($29)
    141c:	00191043 	sra	$2,$25,0x1
    1420:	acc20004 	sw	$2,4($6)
    1424:	006f0018 	mult	$3,$15
    1428:	012a4821 	addu	$9,$9,$10
    142c:	016a5821 	addu	$11,$11,$10
    1430:	020a8021 	addu	$16,$16,$10
    1434:	022a8821 	addu	$17,$17,$10
    1438:	02cab021 	addu	$22,$22,$10
    143c:	03caf021 	addu	$30,$30,$10
    1440:	afa9007c 	sw	$9,124($29)
    1444:	afab0060 	sw	$11,96($29)
    1448:	afb0006c 	sw	$16,108($29)
    144c:	afb10068 	sw	$17,104($29)
    1450:	afb60064 	sw	$22,100($29)
    1454:	afbe0058 	sw	$30,88($29)
    1458:	afa50054 	sw	$5,84($29)
    145c:	afa40074 	sw	$4,116($29)
    1460:	00001810 	mfhi	$3
    1464:	00031043 	sra	$2,$3,0x1
    1468:	acc20008 	sw	$2,8($6)
    146c:	8fa3009c 	lw	$3,156($29)
    1470:	8fa20078 	lw	$2,120($29)
    1474:	00000000 	nop
    1478:	1043001b 	beq	$2,$3,14e8 <main+0x8cc>
    147c:	3c0b0999 	lui	$11,0x999
    1480:	8fb8005c 	lw	$24,92($29)
    1484:	8fbf0070 	lw	$31,112($29)
    1488:	8fb10088 	lw	$17,136($29)
    148c:	8fb0008c 	lw	$16,140($29)
    1490:	8fb20090 	lw	$18,144($29)
    1494:	080003e3 	j	f8c <main+0x370>
    1498:	00000000 	nop
    149c:	8fa50070 	lw	$5,112($29)
    14a0:	8fa70090 	lw	$7,144($29)
    14a4:	afad0034 	sw	$13,52($29)
    14a8:	afb2002c 	sw	$18,44($29)
    14ac:	afa50014 	sw	$5,20($29)
    14b0:	afb30018 	sw	$19,24($29)
    14b4:	0160b821 	move	$23,$11
    14b8:	0140f021 	move	$30,$10
    14bc:	03206821 	move	$13,$25
    14c0:	afbf001c 	sw	$31,28($29)
    14c4:	0220b021 	move	$22,$17
    14c8:	03009021 	move	$18,$24
    14cc:	8fac005c 	lw	$12,92($29)
    14d0:	8fb50088 	lw	$21,136($29)
    14d4:	8fa5008c 	lw	$5,140($29)
    14d8:	afa70030 	sw	$7,48($29)
    14dc:	afb00024 	sw	$16,36($29)
    14e0:	080004cd 	j	1334 <main+0x718>
    14e4:	24040004 	li	$4,4
    14e8:	8faa00e8 	lw	$10,232($29)
    14ec:	8fac00b0 	lw	$12,176($29)
    14f0:	356b9999 	ori	$11,$11,0x9999
    14f4:	ad4b0000 	sw	$11,0($10)
    14f8:	8d8d0008 	lw	$13,8($12)
    14fc:	8fa600b4 	lw	$6,180($29)
    1500:	8fbe00d8 	lw	$30,216($29)
    1504:	8fa700b0 	lw	$7,176($29)
    1508:	afad004c 	sw	$13,76($29)
    150c:	8fb10050 	lw	$17,80($29)
    1510:	8d820004 	lw	$2,4($12)
    1514:	8d830000 	lw	$3,0($12)
    1518:	8faa004c 	lw	$10,76($29)
    151c:	8fb00094 	lw	$16,148($29)
    1520:	8cff000c 	lw	$31,12($7)
    1524:	8fb600d4 	lw	$22,212($29)
    1528:	afbe0068 	sw	$30,104($29)
    152c:	8fa400dc 	lw	$4,220($29)
    1530:	8fa500bc 	lw	$5,188($29)
    1534:	8ccd000c 	lw	$13,12($6)
    1538:	8ccc0008 	lw	$12,8($6)
    153c:	8cde0000 	lw	$30,0($6)
    1540:	afb10058 	sw	$17,88($29)
    1544:	8cd10004 	lw	$17,4($6)
    1548:	00621821 	addu	$3,$3,$2
    154c:	24090001 	li	$9,1
    1550:	004a1021 	addu	$2,$2,$10
    1554:	afb00054 	sw	$16,84($29)
    1558:	03e0c821 	move	$25,$31
    155c:	afb60064 	sw	$22,100($29)
    1560:	afa4006c 	sw	$4,108($29)
    1564:	afa50060 	sw	$5,96($29)
    1568:	afa00074 	sw	$0,116($29)
    156c:	afa0007c 	sw	$0,124($29)
    1570:	afa90078 	sw	$9,120($29)
    1574:	afa30080 	sw	$3,128($29)
    1578:	afa20084 	sw	$2,132($29)
    157c:	01a08021 	move	$16,$13
    1580:	03c0c021 	move	$24,$30
    1584:	0180f821 	move	$31,$12
    1588:	8fac0068 	lw	$12,104($29)
    158c:	8fad0064 	lw	$13,100($29)
    1590:	8fa70080 	lw	$7,128($29)
    1594:	8fa9004c 	lw	$9,76($29)
    1598:	8fb60060 	lw	$22,96($29)
    159c:	8faa006c 	lw	$10,108($29)
    15a0:	8d8c0000 	lw	$12,0($12)
    15a4:	8dad0000 	lw	$13,0($13)
    15a8:	8fa5007c 	lw	$5,124($29)
    15ac:	00e95821 	addu	$11,$7,$9
    15b0:	afac004c 	sw	$12,76($29)
    15b4:	8d470000 	lw	$7,0($10)
    15b8:	8ec80000 	lw	$8,0($22)
    15bc:	3c040005 	lui	$4,0x5
    15c0:	afad005c 	sw	$13,92($29)
    15c4:	24840420 	addiu	$4,$4,1056
    15c8:	8fad004c 	lw	$13,76($29)
    15cc:	00851821 	addu	$3,$4,$5
    15d0:	8c640004 	lw	$4,4($3)
    15d4:	8c660000 	lw	$6,0($3)
    15d8:	01074021 	addu	$8,$8,$7
    15dc:	8c650008 	lw	$5,8($3)
    15e0:	8c7e000c 	lw	$30,12($3)
    15e4:	8ec20010 	lw	$2,16($22)
    15e8:	afa80080 	sw	$8,128($29)
    15ec:	00ed3821 	addu	$7,$7,$13
    15f0:	8fac0084 	lw	$12,132($29)
    15f4:	afa70084 	sw	$7,132($29)
    15f8:	8fa70080 	lw	$7,128($29)
    15fc:	00863021 	addu	$6,$4,$6
    1600:	afa20070 	sw	$2,112($29)
    1604:	00852021 	addu	$4,$4,$5
    1608:	00be1021 	addu	$2,$5,$30
    160c:	00a62821 	addu	$5,$5,$6
    1610:	00ab2821 	addu	$5,$5,$11
    1614:	01a73021 	addu	$6,$13,$7
    1618:	00c53021 	addu	$6,$6,$5
    161c:	00cf0018 	mult	$6,$15
    1620:	8fb6005c 	lw	$22,92($29)
    1624:	8fab0084 	lw	$11,132($29)
    1628:	01995021 	addu	$10,$12,$25
    162c:	03c42021 	addu	$4,$30,$4
    1630:	02cb3821 	addu	$7,$22,$11
    1634:	008a2021 	addu	$4,$4,$10
    1638:	00e42021 	addu	$4,$7,$4
    163c:	8c730010 	lw	$19,16($3)
    1640:	8fac0070 	lw	$12,112($29)
    1644:	01394821 	addu	$9,$9,$25
    1648:	01384821 	addu	$9,$9,$24
    164c:	02621021 	addu	$2,$19,$2
    1650:	01b64021 	addu	$8,$13,$22
    1654:	8fa50028 	lw	$5,40($29)
    1658:	00491021 	addu	$2,$2,$9
    165c:	8fa90058 	lw	$9,88($29)
    1660:	01884021 	addu	$8,$12,$8
    1664:	00003810 	mfhi	$7
    1668:	01021021 	addu	$2,$8,$2
    166c:	00a94021 	addu	$8,$5,$9
    1670:	8fac0078 	lw	$12,120($29)
    1674:	008f0018 	mult	$4,$15
    1678:	8c6b0014 	lw	$11,20($3)
    167c:	8c6a0018 	lw	$10,24($3)
    1680:	258c0001 	addiu	$12,$12,1
    1684:	8c72001c 	lw	$18,28($3)
    1688:	afac0078 	sw	$12,120($29)
    168c:	8fa30064 	lw	$3,100($29)
    1690:	8fad006c 	lw	$13,108($29)
    1694:	8fb60068 	lw	$22,104($29)
    1698:	8c630010 	lw	$3,16($3)
    169c:	8dad0010 	lw	$13,16($13)
    16a0:	8ed60010 	lw	$22,16($22)
    16a4:	afa30090 	sw	$3,144($29)
    16a8:	00071843 	sra	$3,$7,0x1
    16ac:	ad030004 	sw	$3,4($8)
    16b0:	afad0088 	sw	$13,136($29)
    16b4:	afb6008c 	sw	$22,140($29)
    16b8:	00002810 	mfhi	$5
	...
    16c4:	004f0018 	mult	$2,$15
    16c8:	00051043 	sra	$2,$5,0x1
    16cc:	ad020008 	sw	$2,8($8)
    16d0:	00001810 	mfhi	$3
    16d4:	00031043 	sra	$2,$3,0x1
    16d8:	ad02000c 	sw	$2,12($8)
    16dc:	8fa200a0 	lw	$2,160($29)
    16e0:	00000000 	nop
    16e4:	1440015c 	bnez	$2,1c58 <main+0x103c>
    16e8:	25260010 	addiu	$6,$9,16
    16ec:	8fa300a4 	lw	$3,164($29)
    16f0:	8fa40074 	lw	$4,116($29)
    16f4:	8fa50054 	lw	$5,84($29)
    16f8:	8fac0090 	lw	$12,144($29)
    16fc:	00641021 	addu	$2,$3,$4
    1700:	00451023 	subu	$2,$2,$5
    1704:	8fa6005c 	lw	$6,92($29)
    1708:	00021080 	sll	$2,$2,0x2
    170c:	00851823 	subu	$3,$4,$5
    1710:	24070008 	li	$7,8
    1714:	00031880 	sll	$3,$3,0x2
    1718:	afa20044 	sw	$2,68($29)
    171c:	03201021 	move	$2,$25
    1720:	afa70024 	sw	$7,36($29)
    1724:	afaa0010 	sw	$10,16($29)
    1728:	0180c821 	move	$25,$12
    172c:	02005021 	move	$10,$16
    1730:	afa30040 	sw	$3,64($29)
    1734:	25280020 	addiu	$8,$9,32
    1738:	8fb40070 	lw	$20,112($29)
    173c:	01a07021 	move	$14,$13
    1740:	afb60014 	sw	$22,20($29)
    1744:	00c03821 	move	$7,$6
    1748:	02408021 	move	$16,$18
    174c:	080005d8 	j	1760 <main+0xb44>
    1750:	00406021 	move	$12,$2
    1754:	8fb0002c 	lw	$16,44($29)
    1758:	8faa0030 	lw	$10,48($29)
    175c:	8fb90034 	lw	$25,52($29)
    1760:	8fa90040 	lw	$9,64($29)
    1764:	8fb60044 	lw	$22,68($29)
    1768:	3c0d0005 	lui	$13,0x5
    176c:	25ad0420 	addiu	$13,$13,1056
    1770:	01a82821 	addu	$5,$13,$8
    1774:	01092021 	addu	$4,$8,$9
    1778:	01161821 	addu	$3,$8,$22
    177c:	01a42021 	addu	$4,$13,$4
    1780:	01a31821 	addu	$3,$13,$3
    1784:	8ca60000 	lw	$6,0($5)
    1788:	8fad0010 	lw	$13,16($29)
    178c:	8c690000 	lw	$9,0($3)
    1790:	8fb60014 	lw	$22,20($29)
    1794:	027ef021 	addu	$30,$19,$30
    1798:	030c6021 	addu	$12,$24,$12
    179c:	0287a821 	addu	$21,$20,$7
    17a0:	afa6001c 	sw	$6,28($29)
    17a4:	03f19021 	addu	$18,$31,$17
    17a8:	01ab3021 	addu	$6,$13,$11
    17ac:	01739821 	addu	$19,$11,$19
    17b0:	0238c021 	addu	$24,$17,$24
    17b4:	03cb5821 	addu	$11,$30,$11
    17b8:	01918821 	addu	$17,$12,$17
    17bc:	afa90020 	sw	$9,32($29)
    17c0:	01715821 	addu	$11,$11,$17
    17c4:	02ce4821 	addu	$9,$22,$14
    17c8:	01d4a021 	addu	$20,$14,$20
    17cc:	02ae7021 	addu	$14,$21,$14
    17d0:	01cb7021 	addu	$14,$14,$11
    17d4:	01cf0018 	mult	$14,$15
    17d8:	8fac0010 	lw	$12,16($29)
    17dc:	03363821 	addu	$7,$25,$22
    17e0:	00d0b021 	addu	$22,$6,$16
    17e4:	8fa60014 	lw	$6,20($29)
    17e8:	026c9821 	addu	$19,$19,$12
    17ec:	8fac0020 	lw	$12,32($29)
    17f0:	8c820000 	lw	$2,0($4)
    17f4:	031fc021 	addu	$24,$24,$31
    17f8:	0286a021 	addu	$20,$20,$6
    17fc:	02789821 	addu	$19,$19,$24
    1800:	01873821 	addu	$7,$12,$7
    1804:	02936021 	addu	$12,$20,$19
    1808:	afa20018 	sw	$2,24($29)
    180c:	020d1021 	addu	$2,$16,$13
    1810:	015f6821 	addu	$13,$10,$31
    1814:	8fbe0018 	lw	$30,24($29)
    1818:	024a9021 	addu	$18,$18,$10
    181c:	0000f810 	mfhi	$31
    1820:	02d23021 	addu	$6,$22,$18
    1824:	03c2b821 	addu	$23,$30,$2
    1828:	8fa2001c 	lw	$2,28($29)
    182c:	018f0018 	mult	$12,$15
    1830:	01394821 	addu	$9,$9,$25
    1834:	01263021 	addu	$6,$9,$6
    1838:	004d6821 	addu	$13,$2,$13
    183c:	02ed1021 	addu	$2,$23,$13
    1840:	8c920008 	lw	$18,8($4)
    1844:	8c970004 	lw	$23,4($4)
    1848:	8c84000c 	lw	$4,12($4)
    184c:	8cb60004 	lw	$22,4($5)
    1850:	00e21021 	addu	$2,$7,$2
    1854:	afa4002c 	sw	$4,44($29)
    1858:	8ca40008 	lw	$4,8($5)
    185c:	8ca5000c 	lw	$5,12($5)
    1860:	8fa70024 	lw	$7,36($29)
    1864:	8c750004 	lw	$21,4($3)
    1868:	afa200f0 	sw	$2,240($29)
    186c:	afa50030 	sw	$5,48($29)
    1870:	8fa20028 	lw	$2,40($29)
    1874:	00006810 	mfhi	$13
    1878:	8c650008 	lw	$5,8($3)
    187c:	8c63000c 	lw	$3,12($3)
    1880:	2509fff0 	addiu	$9,$8,-16
    1884:	00cf0018 	mult	$6,$15
    1888:	00494821 	addu	$9,$2,$9
    188c:	24e70004 	addiu	$7,$7,4
    1890:	afa30034 	sw	$3,52($29)
    1894:	001f1843 	sra	$3,$31,0x1
    1898:	afa70024 	sw	$7,36($29)
    189c:	ad230000 	sw	$3,0($9)
    18a0:	8fb30018 	lw	$19,24($29)
    18a4:	afb20010 	sw	$18,16($29)
    18a8:	8fa600f0 	lw	$6,240($29)
    18ac:	25080010 	addiu	$8,$8,16
    18b0:	0200f021 	move	$30,$16
    18b4:	01406021 	move	$12,$10
    18b8:	03203821 	move	$7,$25
    18bc:	02e05821 	move	$11,$23
    18c0:	8fb8001c 	lw	$24,28($29)
    18c4:	02c08821 	move	$17,$22
    18c8:	0080f821 	move	$31,$4
    18cc:	00001012 	mflo	$2
    18d0:	8fb40020 	lw	$20,32($29)
    18d4:	afa20038 	sw	$2,56($29)
    18d8:	00001810 	mfhi	$3
    18dc:	afa50014 	sw	$5,20($29)
    18e0:	afa3003c 	sw	$3,60($29)
    18e4:	000d1843 	sra	$3,$13,0x1
    18e8:	00cf0018 	mult	$6,$15
    18ec:	8fad003c 	lw	$13,60($29)
    18f0:	ad230004 	sw	$3,4($9)
    18f4:	000d1043 	sra	$2,$13,0x1
    18f8:	ad220008 	sw	$2,8($9)
    18fc:	00001810 	mfhi	$3
    1900:	00031043 	sra	$2,$3,0x1
    1904:	ad22000c 	sw	$2,12($9)
    1908:	8fa30048 	lw	$3,72($29)
    190c:	8fa20024 	lw	$2,36($29)
    1910:	00000000 	nop
    1914:	1443ff8f 	bne	$2,$3,1754 <main+0xb38>
    1918:	02a07021 	move	$14,$21
    191c:	8fa90098 	lw	$9,152($29)
    1920:	8fa70054 	lw	$7,84($29)
    1924:	02406821 	move	$13,$18
    1928:	03206021 	move	$12,$25
    192c:	00e93021 	addu	$6,$7,$9
    1930:	02009021 	move	$18,$16
    1934:	00063080 	sll	$6,$6,0x2
    1938:	01408021 	move	$16,$10
    193c:	01205821 	move	$11,$9
    1940:	8fb10018 	lw	$17,24($29)
    1944:	8fbe001c 	lw	$30,28($29)
    1948:	8faa0020 	lw	$10,32($29)
    194c:	02324821 	addu	$9,$17,$18
    1950:	03d03821 	addu	$7,$30,$16
    1954:	01b71821 	addu	$3,$13,$23
    1958:	02f14021 	addu	$8,$23,$17
    195c:	02de9021 	addu	$18,$22,$30
    1960:	00961021 	addu	$2,$4,$22
    1964:	014c6021 	addu	$12,$10,$12
    1968:	00f6b021 	addu	$22,$7,$22
    196c:	0137b821 	addu	$23,$9,$23
    1970:	02f6b821 	addu	$23,$23,$22
    1974:	01956021 	addu	$12,$12,$21
    1978:	01976021 	addu	$12,$12,$23
    197c:	018f0018 	mult	$12,$15
    1980:	02aa8021 	addu	$16,$21,$10
    1984:	010df021 	addu	$30,$8,$13
    1988:	02449021 	addu	$18,$18,$4
    198c:	8fad002c 	lw	$13,44($29)
    1990:	02058021 	addu	$16,$16,$5
    1994:	03d2c021 	addu	$24,$30,$18
    1998:	0218c021 	addu	$24,$16,$24
    199c:	006d5021 	addu	$10,$3,$13
    19a0:	8fb10030 	lw	$17,48($29)
    19a4:	8fb60034 	lw	$22,52($29)
    19a8:	00b54821 	addu	$9,$5,$21
    19ac:	00511021 	addu	$2,$2,$17
    19b0:	0136f821 	addu	$31,$9,$22
    19b4:	01421821 	addu	$3,$10,$2
    19b8:	8fa40054 	lw	$4,84($29)
    19bc:	03e31821 	addu	$3,$31,$3
    19c0:	8fa50028 	lw	$5,40($29)
    19c4:	00006810 	mfhi	$13
    19c8:	008b1021 	addu	$2,$4,$11
    19cc:	24420003 	addiu	$2,$2,3
    19d0:	00021080 	sll	$2,$2,0x2
    19d4:	030f0018 	mult	$24,$15
    19d8:	00a21021 	addu	$2,$5,$2
    19dc:	8c420000 	lw	$2,0($2)
    19e0:	00a63021 	addu	$6,$5,$6
    19e4:	8fa90050 	lw	$9,80($29)
    19e8:	acc2000c 	sw	$2,12($6)
    19ec:	8fa20094 	lw	$2,148($29)
    19f0:	8fa7007c 	lw	$7,124($29)
    19f4:	8faa0060 	lw	$10,96($29)
    19f8:	00822021 	addu	$4,$4,$2
    19fc:	afa40054 	sw	$4,84($29)
    1a00:	8fa40074 	lw	$4,116($29)
    1a04:	8fab006c 	lw	$11,108($29)
    1a08:	8fb00068 	lw	$16,104($29)
    1a0c:	00822021 	addu	$4,$4,$2
    1a10:	000d1043 	sra	$2,$13,0x1
    1a14:	acc20000 	sw	$2,0($6)
    1a18:	8fb10064 	lw	$17,100($29)
    1a1c:	0000c810 	mfhi	$25
    1a20:	8fb60058 	lw	$22,88($29)
    1a24:	00191043 	sra	$2,$25,0x1
    1a28:	acc20004 	sw	$2,4($6)
    1a2c:	006f0018 	mult	$3,$15
    1a30:	00e93821 	addu	$7,$7,$9
    1a34:	01495021 	addu	$10,$10,$9
    1a38:	01695821 	addu	$11,$11,$9
    1a3c:	02098021 	addu	$16,$16,$9
    1a40:	02298821 	addu	$17,$17,$9
    1a44:	02c9b021 	addu	$22,$22,$9
    1a48:	afa7007c 	sw	$7,124($29)
    1a4c:	afaa0060 	sw	$10,96($29)
    1a50:	afab006c 	sw	$11,108($29)
    1a54:	afb00068 	sw	$16,104($29)
    1a58:	afb10064 	sw	$17,100($29)
    1a5c:	afb60058 	sw	$22,88($29)
    1a60:	afa40074 	sw	$4,116($29)
    1a64:	00001810 	mfhi	$3
    1a68:	00031043 	sra	$2,$3,0x1
    1a6c:	acc20008 	sw	$2,8($6)
    1a70:	8fa3009c 	lw	$3,156($29)
    1a74:	8fa20078 	lw	$2,120($29)
    1a78:	00000000 	nop
    1a7c:	1043000c 	beq	$2,$3,1ab0 <main+0xe94>
    1a80:	00000000 	nop
    1a84:	8fb9005c 	lw	$25,92($29)
    1a88:	8fb80070 	lw	$24,112($29)
    1a8c:	8fb10088 	lw	$17,136($29)
    1a90:	8fbf008c 	lw	$31,140($29)
    1a94:	8fb00090 	lw	$16,144($29)
    1a98:	08000562 	j	1588 <main+0x96c>
    1a9c:	00000000 	nop
    1aa0:	8fab00ec 	lw	$11,236($29)
    1aa4:	3c0c0999 	lui	$12,0x999
    1aa8:	358c9999 	ori	$12,$12,0x9999
    1aac:	ad6c0000 	sw	$12,0($11)
    1ab0:	8fa400b8 	lw	$4,184($29)
    1ab4:	8fa500e0 	lw	$5,224($29)
    1ab8:	8fa700c4 	lw	$7,196($29)
    1abc:	3c060999 	lui	$6,0x999
    1ac0:	24840001 	addiu	$4,$4,1
    1ac4:	34c69999 	ori	$6,$6,0x9999
    1ac8:	afa400b8 	sw	$4,184($29)
    1acc:	1487fd09 	bne	$4,$7,ef4 <main+0x2d8>
    1ad0:	aca60000 	sw	$6,0($5)
    1ad4:	0c000080 	jal	200 <output_buffer_put>
    1ad8:	2404000a 	li	$4,10
    1adc:	0c000080 	jal	200 <output_buffer_put>
    1ae0:	2404000d 	li	$4,13
    1ae4:	8fa60094 	lw	$6,148($29)
    1ae8:	8fb00028 	lw	$16,40($29)
    1aec:	24120010 	li	$18,16
    1af0:	00063080 	sll	$6,$6,0x2
    1af4:	afa60010 	sw	$6,16($29)
    1af8:	8e040000 	lw	$4,0($16)
    1afc:	8e1e0004 	lw	$30,4($16)
    1b00:	8e170008 	lw	$23,8($16)
    1b04:	8e16000c 	lw	$22,12($16)
    1b08:	8e150010 	lw	$21,16($16)
    1b0c:	8e140014 	lw	$20,20($16)
    1b10:	8e130018 	lw	$19,24($16)
    1b14:	8e11001c 	lw	$17,28($16)
    1b18:	0c000115 	jal	454 <mylib_display_hex>
    1b1c:	2652ffff 	addiu	$18,$18,-1
    1b20:	0c000080 	jal	200 <output_buffer_put>
    1b24:	24040020 	li	$4,32
    1b28:	0c000115 	jal	454 <mylib_display_hex>
    1b2c:	03c02021 	move	$4,$30
    1b30:	0c000080 	jal	200 <output_buffer_put>
    1b34:	24040020 	li	$4,32
    1b38:	0c000115 	jal	454 <mylib_display_hex>
    1b3c:	02e02021 	move	$4,$23
    1b40:	0c000080 	jal	200 <output_buffer_put>
    1b44:	24040020 	li	$4,32
    1b48:	0c000115 	jal	454 <mylib_display_hex>
    1b4c:	02c02021 	move	$4,$22
    1b50:	0c000080 	jal	200 <output_buffer_put>
    1b54:	24040020 	li	$4,32
    1b58:	0c000115 	jal	454 <mylib_display_hex>
    1b5c:	02a02021 	move	$4,$21
    1b60:	0c000080 	jal	200 <output_buffer_put>
    1b64:	24040020 	li	$4,32
    1b68:	0c000115 	jal	454 <mylib_display_hex>
    1b6c:	02802021 	move	$4,$20
    1b70:	0c000080 	jal	200 <output_buffer_put>
    1b74:	24040020 	li	$4,32
    1b78:	0c000115 	jal	454 <mylib_display_hex>
    1b7c:	02602021 	move	$4,$19
    1b80:	0c000080 	jal	200 <output_buffer_put>
    1b84:	24040020 	li	$4,32
    1b88:	0c000115 	jal	454 <mylib_display_hex>
    1b8c:	02202021 	move	$4,$17
    1b90:	0c000080 	jal	200 <output_buffer_put>
    1b94:	24040020 	li	$4,32
    1b98:	0c000080 	jal	200 <output_buffer_put>
    1b9c:	2404000a 	li	$4,10
    1ba0:	0c000080 	jal	200 <output_buffer_put>
    1ba4:	2404000d 	li	$4,13
    1ba8:	8fa70010 	lw	$7,16($29)
    1bac:	1640ffd2 	bnez	$18,1af8 <main+0xedc>
    1bb0:	02078021 	addu	$16,$16,$7
    1bb4:	8fa90094 	lw	$9,148($29)
    1bb8:	00000000 	nop
    1bbc:	1920003c 	blez	$9,1cb0 <main+0x1094>
    1bc0:	01204021 	move	$8,$9
    1bc4:	8faa0010 	lw	$10,16($29)
    1bc8:	8fa90028 	lw	$9,40($29)
    1bcc:	00003821 	move	$7,$0
    1bd0:	00003021 	move	$6,$0
    1bd4:	00002021 	move	$4,$0
    1bd8:	00e01821 	move	$3,$7
    1bdc:	00001021 	move	$2,$0
    1be0:	01232821 	addu	$5,$9,$3
    1be4:	8ca50000 	lw	$5,0($5)
    1be8:	24420001 	addiu	$2,$2,1
    1bec:	24630004 	addiu	$3,$3,4
    1bf0:	1448fffb 	bne	$2,$8,1be0 <main+0xfc4>
    1bf4:	00852021 	addu	$4,$4,$5
    1bf8:	24c60001 	addiu	$6,$6,1
    1bfc:	14c8fff6 	bne	$6,$8,1bd8 <main+0xfbc>
    1c00:	00ea3821 	addu	$7,$7,$10
    1c04:	0c000115 	jal	454 <mylib_display_hex>
    1c08:	00000000 	nop
    1c0c:	0c000080 	jal	200 <output_buffer_put>
    1c10:	2404000a 	li	$4,10
    1c14:	0c000080 	jal	200 <output_buffer_put>
    1c18:	2404000d 	li	$4,13
    1c1c:	0c00018a 	jal	628 <mylib_finalize>
    1c20:	00000000 	nop
    1c24:	8fbf0124 	lw	$31,292($29)
    1c28:	8fbe0120 	lw	$30,288($29)
    1c2c:	8fb7011c 	lw	$23,284($29)
    1c30:	8fb60118 	lw	$22,280($29)
    1c34:	8fb50114 	lw	$21,276($29)
    1c38:	8fb40110 	lw	$20,272($29)
    1c3c:	8fb3010c 	lw	$19,268($29)
    1c40:	8fb20108 	lw	$18,264($29)
    1c44:	8fb10104 	lw	$17,260($29)
    1c48:	8fb00100 	lw	$16,256($29)
    1c4c:	00001021 	move	$2,$0
    1c50:	03e00008 	jr	$31
    1c54:	27bd0128 	addiu	$29,$29,296
    1c58:	0160b821 	move	$23,$11
    1c5c:	01406821 	move	$13,$10
    1c60:	8fab0090 	lw	$11,144($29)
    1c64:	8faa0070 	lw	$10,112($29)
    1c68:	afb2002c 	sw	$18,44($29)
    1c6c:	afb00030 	sw	$16,48($29)
    1c70:	afab0034 	sw	$11,52($29)
    1c74:	afb30018 	sw	$19,24($29)
    1c78:	03c09021 	move	$18,$30
    1c7c:	afb8001c 	sw	$24,28($29)
    1c80:	0220b021 	move	$22,$17
    1c84:	03e02021 	move	$4,$31
    1c88:	03208021 	move	$16,$25
    1c8c:	8fac005c 	lw	$12,92($29)
    1c90:	afaa0020 	sw	$10,32($29)
    1c94:	8fb50088 	lw	$21,136($29)
    1c98:	8fa5008c 	lw	$5,140($29)
    1c9c:	08000650 	j	1940 <main+0xd24>
    1ca0:	240b0004 	li	$11,4
    1ca4:	24420420 	addiu	$2,$2,1056
    1ca8:	08000374 	j	dd0 <main+0x1b4>
    1cac:	afa20028 	sw	$2,40($29)
    1cb0:	08000701 	j	1c04 <main+0xfe8>
    1cb4:	00002021 	move	$4,$0
